
ADDRESSABLE_LED_STRIP_WITH_IR_REMOTE.elf:     file format elf32-avr

Sections:
Idx Name          Size      VMA       LMA       File off  Algn
  0 .data         0000007c  00800100  00001278  0000132c  2**0
                  CONTENTS, ALLOC, LOAD, DATA
  1 .text         00001278  00000000  00000000  000000b4  2**1
                  CONTENTS, ALLOC, LOAD, READONLY, CODE
  2 .bss          00000015  0080017c  0080017c  000013a8  2**0
                  ALLOC
  3 .eeprom       00000002  00810000  00810000  000013a8  2**0
                  CONTENTS, ALLOC, LOAD, DATA
  4 .comment      0000005c  00000000  00000000  000013aa  2**0
                  CONTENTS, READONLY
  5 .note.gnu.avr.deviceinfo 00000040  00000000  00000000  00001408  2**2
                  CONTENTS, READONLY
  6 .debug_aranges 00000160  00000000  00000000  00001448  2**3
                  CONTENTS, READONLY, DEBUGGING
  7 .debug_info   000022be  00000000  00000000  000015a8  2**0
                  CONTENTS, READONLY, DEBUGGING
  8 .debug_abbrev 00000b62  00000000  00000000  00003866  2**0
                  CONTENTS, READONLY, DEBUGGING
  9 .debug_line   00001130  00000000  00000000  000043c8  2**0
                  CONTENTS, READONLY, DEBUGGING
 10 .debug_frame  000002e8  00000000  00000000  000054f8  2**2
                  CONTENTS, READONLY, DEBUGGING
 11 .debug_str    000006b5  00000000  00000000  000057e0  2**0
                  CONTENTS, READONLY, DEBUGGING
 12 .debug_loc    0000119a  00000000  00000000  00005e95  2**0
                  CONTENTS, READONLY, DEBUGGING
 13 .debug_ranges 000000e0  00000000  00000000  0000702f  2**0
                  CONTENTS, READONLY, DEBUGGING

Disassembly of section .text:

00000000 <__vectors>:
       0:	0c 94 40 00 	jmp	0x80	; 0x80 <__ctors_end>
       4:	0c 94 5d 00 	jmp	0xba	; 0xba <__bad_interrupt>
       8:	0c 94 5d 00 	jmp	0xba	; 0xba <__bad_interrupt>
       c:	0c 94 5d 00 	jmp	0xba	; 0xba <__bad_interrupt>
      10:	0c 94 5d 00 	jmp	0xba	; 0xba <__bad_interrupt>
      14:	0c 94 5d 00 	jmp	0xba	; 0xba <__bad_interrupt>
      18:	0c 94 5d 00 	jmp	0xba	; 0xba <__bad_interrupt>
      1c:	0c 94 5d 00 	jmp	0xba	; 0xba <__bad_interrupt>
      20:	0c 94 5d 00 	jmp	0xba	; 0xba <__bad_interrupt>
      24:	0c 94 5d 00 	jmp	0xba	; 0xba <__bad_interrupt>
      28:	0c 94 5d 00 	jmp	0xba	; 0xba <__bad_interrupt>
      2c:	0c 94 5d 00 	jmp	0xba	; 0xba <__bad_interrupt>
      30:	0c 94 5d 00 	jmp	0xba	; 0xba <__bad_interrupt>
      34:	0c 94 5d 00 	jmp	0xba	; 0xba <__bad_interrupt>
      38:	0c 94 5d 00 	jmp	0xba	; 0xba <__bad_interrupt>
      3c:	0c 94 5d 00 	jmp	0xba	; 0xba <__bad_interrupt>
      40:	0c 94 5d 00 	jmp	0xba	; 0xba <__bad_interrupt>
      44:	0c 94 5d 00 	jmp	0xba	; 0xba <__bad_interrupt>
      48:	0c 94 5d 00 	jmp	0xba	; 0xba <__bad_interrupt>
      4c:	0c 94 5d 00 	jmp	0xba	; 0xba <__bad_interrupt>
      50:	0c 94 5d 00 	jmp	0xba	; 0xba <__bad_interrupt>
      54:	0c 94 5d 00 	jmp	0xba	; 0xba <__bad_interrupt>
      58:	0c 94 5d 00 	jmp	0xba	; 0xba <__bad_interrupt>
      5c:	0c 94 5d 00 	jmp	0xba	; 0xba <__bad_interrupt>
      60:	0c 94 5d 00 	jmp	0xba	; 0xba <__bad_interrupt>
      64:	0c 94 5d 00 	jmp	0xba	; 0xba <__bad_interrupt>
      68:	ec 01       	movw	r28, r24
      6a:	0f 02       	muls	r16, r31
      6c:	33 02       	muls	r19, r19
      6e:	56 02       	muls	r21, r22
      70:	79 02       	muls	r23, r25
      72:	9e 02       	muls	r25, r30
      74:	c1 02       	muls	r28, r17
      76:	e4 02       	muls	r30, r20
      78:	08 03       	fmul	r16, r16
      7a:	2b 03       	fmul	r18, r19

0000007c <__trampolines_end>:
      7c:	4f 4b       	sbci	r20, 0xBF	; 191
	...

00000080 <__ctors_end>:
      80:	11 24       	eor	r1, r1
      82:	1f be       	out	0x3f, r1	; 63
      84:	cf ef       	ldi	r28, 0xFF	; 255
      86:	d8 e0       	ldi	r29, 0x08	; 8
      88:	de bf       	out	0x3e, r29	; 62
      8a:	cd bf       	out	0x3d, r28	; 61

0000008c <__do_copy_data>:
      8c:	11 e0       	ldi	r17, 0x01	; 1
      8e:	a0 e0       	ldi	r26, 0x00	; 0
      90:	b1 e0       	ldi	r27, 0x01	; 1
      92:	e8 e7       	ldi	r30, 0x78	; 120
      94:	f2 e1       	ldi	r31, 0x12	; 18
      96:	02 c0       	rjmp	.+4      	; 0x9c <__do_copy_data+0x10>
      98:	05 90       	lpm	r0, Z+
      9a:	0d 92       	st	X+, r0
      9c:	ac 37       	cpi	r26, 0x7C	; 124
      9e:	b1 07       	cpc	r27, r17
      a0:	d9 f7       	brne	.-10     	; 0x98 <__do_copy_data+0xc>

000000a2 <__do_clear_bss>:
      a2:	21 e0       	ldi	r18, 0x01	; 1
      a4:	ac e7       	ldi	r26, 0x7C	; 124
      a6:	b1 e0       	ldi	r27, 0x01	; 1
      a8:	01 c0       	rjmp	.+2      	; 0xac <.do_clear_bss_start>

000000aa <.do_clear_bss_loop>:
      aa:	1d 92       	st	X+, r1

000000ac <.do_clear_bss_start>:
      ac:	a1 39       	cpi	r26, 0x91	; 145
      ae:	b2 07       	cpc	r27, r18
      b0:	e1 f7       	brne	.-8      	; 0xaa <.do_clear_bss_loop>
      b2:	0e 94 af 04 	call	0x95e	; 0x95e <main>
      b6:	0c 94 3a 09 	jmp	0x1274	; 0x1274 <_exit>

000000ba <__bad_interrupt>:
      ba:	0c 94 00 00 	jmp	0	; 0x0 <__vectors>

000000be <BusLinesState>:
	if (S_C == 1) Sbit(bus_data, 3);
	else Cbit(bus_data, 3);
	if (R_L == 1) Sbit(bus_data, 2);
	else Cbit(bus_data, 2);
	BusLinesState(&bus_data, 0);
}
      be:	0f 93       	push	r16
      c0:	1f 93       	push	r17
      c2:	cf 93       	push	r28
      c4:	df 93       	push	r29
      c6:	00 d0       	rcall	.+0      	; 0xc8 <BusLinesState+0xa>
      c8:	cd b7       	in	r28, 0x3d	; 61
      ca:	de b7       	in	r29, 0x3e	; 62
      cc:	dc 01       	movw	r26, r24
      ce:	8c 91       	ld	r24, X
      d0:	98 2f       	mov	r25, r24
      d2:	92 95       	swap	r25
      d4:	9f 70       	andi	r25, 0x0F	; 15
      d6:	99 83       	std	Y+1, r25	; 0x01
      d8:	8f 70       	andi	r24, 0x0F	; 15
      da:	8a 83       	std	Y+2, r24	; 0x02
      dc:	30 e0       	ldi	r19, 0x00	; 0
      de:	8d c0       	rjmp	.+282    	; 0x1fa <BusLinesState+0x13c>
      e0:	33 23       	and	r19, r19
      e2:	19 f0       	breq	.+6      	; 0xea <BusLinesState+0x2c>
      e4:	31 30       	cpi	r19, 0x01	; 1
      e6:	41 f4       	brne	.+16     	; 0xf8 <BusLinesState+0x3a>
      e8:	04 c0       	rjmp	.+8      	; 0xf2 <BusLinesState+0x34>
      ea:	8e 01       	movw	r16, r28
      ec:	0f 5f       	subi	r16, 0xFF	; 255
      ee:	1f 4f       	sbci	r17, 0xFF	; 255
      f0:	03 c0       	rjmp	.+6      	; 0xf8 <BusLinesState+0x3a>
      f2:	8e 01       	movw	r16, r28
      f4:	0e 5f       	subi	r16, 0xFE	; 254
      f6:	1f 4f       	sbci	r17, 0xFF	; 255
      f8:	20 e0       	ldi	r18, 0x00	; 0
      fa:	3c c0       	rjmp	.+120    	; 0x174 <BusLinesState+0xb6>
      fc:	f8 01       	movw	r30, r16
      fe:	80 81       	ld	r24, Z
     100:	42 2f       	mov	r20, r18
     102:	50 e0       	ldi	r21, 0x00	; 0
     104:	90 e0       	ldi	r25, 0x00	; 0
     106:	02 2e       	mov	r0, r18
     108:	02 c0       	rjmp	.+4      	; 0x10e <BusLinesState+0x50>
     10a:	95 95       	asr	r25
     10c:	87 95       	ror	r24
     10e:	0a 94       	dec	r0
     110:	e2 f7       	brpl	.-8      	; 0x10a <BusLinesState+0x4c>
     112:	80 ff       	sbrs	r24, 0
     114:	17 c0       	rjmp	.+46     	; 0x144 <BusLinesState+0x86>
     116:	da 01       	movw	r26, r20
     118:	aa 0f       	add	r26, r26
     11a:	bb 1f       	adc	r27, r27
     11c:	ac 5f       	subi	r26, 0xFC	; 252
     11e:	be 4f       	sbci	r27, 0xFE	; 254
     120:	0d 90       	ld	r0, X+
     122:	bc 91       	ld	r27, X
     124:	a0 2d       	mov	r26, r0
     126:	40 50       	subi	r20, 0x00	; 0
     128:	5f 4f       	sbci	r21, 0xFF	; 255
     12a:	81 e0       	ldi	r24, 0x01	; 1
     12c:	90 e0       	ldi	r25, 0x00	; 0
     12e:	fa 01       	movw	r30, r20
     130:	00 80       	ld	r0, Z
     132:	02 c0       	rjmp	.+4      	; 0x138 <BusLinesState+0x7a>
     134:	88 0f       	add	r24, r24
     136:	99 1f       	adc	r25, r25
     138:	0a 94       	dec	r0
     13a:	e2 f7       	brpl	.-8      	; 0x134 <BusLinesState+0x76>
     13c:	9c 91       	ld	r25, X
     13e:	89 2b       	or	r24, r25
     140:	8c 93       	st	X, r24
     142:	17 c0       	rjmp	.+46     	; 0x172 <BusLinesState+0xb4>
     144:	da 01       	movw	r26, r20
     146:	aa 0f       	add	r26, r26
     148:	bb 1f       	adc	r27, r27
     14a:	ac 5f       	subi	r26, 0xFC	; 252
     14c:	be 4f       	sbci	r27, 0xFE	; 254
     14e:	0d 90       	ld	r0, X+
     150:	bc 91       	ld	r27, X
     152:	a0 2d       	mov	r26, r0
     154:	40 50       	subi	r20, 0x00	; 0
     156:	5f 4f       	sbci	r21, 0xFF	; 255
     158:	81 e0       	ldi	r24, 0x01	; 1
     15a:	90 e0       	ldi	r25, 0x00	; 0
     15c:	fa 01       	movw	r30, r20
     15e:	00 80       	ld	r0, Z
     160:	02 c0       	rjmp	.+4      	; 0x166 <BusLinesState+0xa8>
     162:	88 0f       	add	r24, r24
     164:	99 1f       	adc	r25, r25
     166:	0a 94       	dec	r0
     168:	e2 f7       	brpl	.-8      	; 0x162 <BusLinesState+0xa4>
     16a:	80 95       	com	r24
     16c:	9c 91       	ld	r25, X
     16e:	89 23       	and	r24, r25
     170:	8c 93       	st	X, r24
     172:	2f 5f       	subi	r18, 0xFF	; 255
     174:	24 30       	cpi	r18, 0x04	; 4
     176:	10 f2       	brcs	.-124    	; 0xfc <BusLinesState+0x3e>
     178:	61 11       	cpse	r22, r1
     17a:	0f c0       	rjmp	.+30     	; 0x19a <BusLinesState+0xdc>
     17c:	8b b1       	in	r24, 0x0b	; 11
     17e:	88 60       	ori	r24, 0x08	; 8
     180:	8b b9       	out	0x0b, r24	; 11
     182:	fa e6       	ldi	r31, 0x6A	; 106
     184:	fa 95       	dec	r31
     186:	f1 f7       	brne	.-4      	; 0x184 <BusLinesState+0xc6>
     188:	00 c0       	rjmp	.+0      	; 0x18a <BusLinesState+0xcc>
     18a:	8b b1       	in	r24, 0x0b	; 11
     18c:	87 7f       	andi	r24, 0xF7	; 247
     18e:	8b b9       	out	0x0b, r24	; 11
     190:	8a e6       	ldi	r24, 0x6A	; 106
     192:	8a 95       	dec	r24
     194:	f1 f7       	brne	.-4      	; 0x192 <BusLinesState+0xd4>
     196:	00 c0       	rjmp	.+0      	; 0x198 <BusLinesState+0xda>
     198:	2f c0       	rjmp	.+94     	; 0x1f8 <BusLinesState+0x13a>
     19a:	61 30       	cpi	r22, 0x01	; 1
     19c:	c9 f4       	brne	.+50     	; 0x1d0 <BusLinesState+0x112>
     19e:	31 11       	cpse	r19, r1
     1a0:	03 c0       	rjmp	.+6      	; 0x1a8 <BusLinesState+0xea>
     1a2:	8b b1       	in	r24, 0x0b	; 11
     1a4:	84 60       	ori	r24, 0x04	; 4
     1a6:	8b b9       	out	0x0b, r24	; 11
     1a8:	8b b1       	in	r24, 0x0b	; 11
     1aa:	88 60       	ori	r24, 0x08	; 8
     1ac:	8b b9       	out	0x0b, r24	; 11
     1ae:	9a e6       	ldi	r25, 0x6A	; 106
     1b0:	9a 95       	dec	r25
     1b2:	f1 f7       	brne	.-4      	; 0x1b0 <BusLinesState+0xf2>
     1b4:	00 c0       	rjmp	.+0      	; 0x1b6 <BusLinesState+0xf8>
     1b6:	8b b1       	in	r24, 0x0b	; 11
     1b8:	87 7f       	andi	r24, 0xF7	; 247
     1ba:	8b b9       	out	0x0b, r24	; 11
     1bc:	31 30       	cpi	r19, 0x01	; 1
     1be:	19 f4       	brne	.+6      	; 0x1c6 <BusLinesState+0x108>
     1c0:	8b b1       	in	r24, 0x0b	; 11
     1c2:	8b 7f       	andi	r24, 0xFB	; 251
     1c4:	8b b9       	out	0x0b, r24	; 11
     1c6:	aa e6       	ldi	r26, 0x6A	; 106
     1c8:	aa 95       	dec	r26
     1ca:	f1 f7       	brne	.-4      	; 0x1c8 <BusLinesState+0x10a>
     1cc:	00 c0       	rjmp	.+0      	; 0x1ce <BusLinesState+0x110>
     1ce:	14 c0       	rjmp	.+40     	; 0x1f8 <BusLinesState+0x13a>
     1d0:	62 30       	cpi	r22, 0x02	; 2
     1d2:	91 f4       	brne	.+36     	; 0x1f8 <BusLinesState+0x13a>
     1d4:	8b b1       	in	r24, 0x0b	; 11
     1d6:	88 60       	ori	r24, 0x08	; 8
     1d8:	8b b9       	out	0x0b, r24	; 11
     1da:	ef e0       	ldi	r30, 0x0F	; 15
     1dc:	f7 e2       	ldi	r31, 0x27	; 39
     1de:	31 97       	sbiw	r30, 0x01	; 1
     1e0:	f1 f7       	brne	.-4      	; 0x1de <BusLinesState+0x120>
     1e2:	00 c0       	rjmp	.+0      	; 0x1e4 <BusLinesState+0x126>
     1e4:	00 00       	nop
     1e6:	8b b1       	in	r24, 0x0b	; 11
     1e8:	87 7f       	andi	r24, 0xF7	; 247
     1ea:	8b b9       	out	0x0b, r24	; 11
     1ec:	8f e0       	ldi	r24, 0x0F	; 15
     1ee:	97 e2       	ldi	r25, 0x27	; 39
     1f0:	01 97       	sbiw	r24, 0x01	; 1
     1f2:	f1 f7       	brne	.-4      	; 0x1f0 <BusLinesState+0x132>
     1f4:	00 c0       	rjmp	.+0      	; 0x1f6 <BusLinesState+0x138>
     1f6:	00 00       	nop
     1f8:	3f 5f       	subi	r19, 0xFF	; 255
     1fa:	32 30       	cpi	r19, 0x02	; 2
     1fc:	08 f4       	brcc	.+2      	; 0x200 <BusLinesState+0x142>
     1fe:	70 cf       	rjmp	.-288    	; 0xe0 <BusLinesState+0x22>
     200:	0f 90       	pop	r0
     202:	0f 90       	pop	r0
     204:	df 91       	pop	r29
     206:	cf 91       	pop	r28
     208:	1f 91       	pop	r17
     20a:	0f 91       	pop	r16
     20c:	08 95       	ret

0000020e <LCD_DisplEnable_CursOnOffBlink>:
     20e:	cf 93       	push	r28
     210:	df 93       	push	r29
     212:	1f 92       	push	r1
     214:	cd b7       	in	r28, 0x3d	; 61
     216:	de b7       	in	r29, 0x3e	; 62
     218:	98 e0       	ldi	r25, 0x08	; 8
     21a:	99 83       	std	Y+1, r25	; 0x01
     21c:	81 30       	cpi	r24, 0x01	; 1
     21e:	11 f4       	brne	.+4      	; 0x224 <LCD_DisplEnable_CursOnOffBlink+0x16>
     220:	8c e0       	ldi	r24, 0x0C	; 12
     222:	89 83       	std	Y+1, r24	; 0x01
     224:	61 30       	cpi	r22, 0x01	; 1
     226:	21 f4       	brne	.+8      	; 0x230 <LCD_DisplEnable_CursOnOffBlink+0x22>
     228:	89 81       	ldd	r24, Y+1	; 0x01
     22a:	82 60       	ori	r24, 0x02	; 2
     22c:	89 83       	std	Y+1, r24	; 0x01
     22e:	03 c0       	rjmp	.+6      	; 0x236 <LCD_DisplEnable_CursOnOffBlink+0x28>
     230:	89 81       	ldd	r24, Y+1	; 0x01
     232:	8d 7f       	andi	r24, 0xFD	; 253
     234:	89 83       	std	Y+1, r24	; 0x01
     236:	41 30       	cpi	r20, 0x01	; 1
     238:	21 f4       	brne	.+8      	; 0x242 <LCD_DisplEnable_CursOnOffBlink+0x34>
     23a:	89 81       	ldd	r24, Y+1	; 0x01
     23c:	81 60       	ori	r24, 0x01	; 1
     23e:	89 83       	std	Y+1, r24	; 0x01
     240:	03 c0       	rjmp	.+6      	; 0x248 <LCD_DisplEnable_CursOnOffBlink+0x3a>
     242:	89 81       	ldd	r24, Y+1	; 0x01
     244:	8e 7f       	andi	r24, 0xFE	; 254
     246:	89 83       	std	Y+1, r24	; 0x01
     248:	60 e0       	ldi	r22, 0x00	; 0
     24a:	ce 01       	movw	r24, r28
     24c:	01 96       	adiw	r24, 0x01	; 1
     24e:	0e 94 5f 00 	call	0xbe	; 0xbe <BusLinesState>
     252:	0f 90       	pop	r0
     254:	df 91       	pop	r29
     256:	cf 91       	pop	r28
     258:	08 95       	ret

0000025a <LCD_UserSymbolsWrite>:

void LCD_UserSymbolsWrite(uint8_t Addr, uint8_t *data)
{
     25a:	ef 92       	push	r14
     25c:	ff 92       	push	r15
     25e:	1f 93       	push	r17
     260:	cf 93       	push	r28
     262:	df 93       	push	r29
     264:	1f 92       	push	r1
     266:	cd b7       	in	r28, 0x3d	; 61
     268:	de b7       	in	r29, 0x3e	; 62
     26a:	7b 01       	movw	r14, r22
	uint8_t bus_data = 0b1000000;
	
	bus_data |= Addr*8;
     26c:	88 0f       	add	r24, r24
     26e:	88 0f       	add	r24, r24
     270:	88 0f       	add	r24, r24
     272:	80 64       	ori	r24, 0x40	; 64
     274:	89 83       	std	Y+1, r24	; 0x01
	BusLinesState(&bus_data, 0);
     276:	60 e0       	ldi	r22, 0x00	; 0
     278:	ce 01       	movw	r24, r28
     27a:	01 96       	adiw	r24, 0x01	; 1
     27c:	0e 94 5f 00 	call	0xbe	; 0xbe <BusLinesState>
	
	for (uint8_t i = 0; i < 8; i++)
     280:	10 e0       	ldi	r17, 0x00	; 0
     282:	08 c0       	rjmp	.+16     	; 0x294 <LCD_UserSymbolsWrite+0x3a>
	{
		BusLinesState(data, 1);
     284:	61 e0       	ldi	r22, 0x01	; 1
     286:	c7 01       	movw	r24, r14
     288:	0e 94 5f 00 	call	0xbe	; 0xbe <BusLinesState>
		data++;
     28c:	8f ef       	ldi	r24, 0xFF	; 255
     28e:	e8 1a       	sub	r14, r24
     290:	f8 0a       	sbc	r15, r24
	uint8_t bus_data = 0b1000000;
	
	bus_data |= Addr*8;
	BusLinesState(&bus_data, 0);
	
	for (uint8_t i = 0; i < 8; i++)
     292:	1f 5f       	subi	r17, 0xFF	; 255
     294:	18 30       	cpi	r17, 0x08	; 8
     296:	b0 f3       	brcs	.-20     	; 0x284 <LCD_UserSymbolsWrite+0x2a>
	{
		BusLinesState(data, 1);
		data++;
	}
}
     298:	0f 90       	pop	r0
     29a:	df 91       	pop	r29
     29c:	cf 91       	pop	r28
     29e:	1f 91       	pop	r17
     2a0:	ff 90       	pop	r15
     2a2:	ef 90       	pop	r14
     2a4:	08 95       	ret

000002a6 <LCD_Init>:
		}
	}
}

void LCD_Init(void)
{
     2a6:	1f 93       	push	r17
     2a8:	cf 93       	push	r28
     2aa:	df 93       	push	r29
     2ac:	00 d0       	rcall	.+0      	; 0x2ae <LCD_Init+0x8>
     2ae:	cd b7       	in	r28, 0x3d	; 61
     2b0:	de b7       	in	r29, 0x3e	; 62
	#else
		//round up by default
		__ticks_dc = (uint32_t)(ceil(fabs(__tmp)));
	#endif

	__builtin_avr_delay_cycles(__ticks_dc);
     2b2:	8f e2       	ldi	r24, 0x2F	; 47
     2b4:	95 e7       	ldi	r25, 0x75	; 117
     2b6:	01 97       	sbiw	r24, 0x01	; 1
     2b8:	f1 f7       	brne	.-4      	; 0x2b6 <LCD_Init+0x10>
     2ba:	00 c0       	rjmp	.+0      	; 0x2bc <LCD_Init+0x16>
     2bc:	00 00       	nop
	_delay_ms(15);
	
	uint8_t bus_data = 0b100000;
     2be:	80 e2       	ldi	r24, 0x20	; 32
     2c0:	89 83       	std	Y+1, r24	; 0x01
	uint8_t empty_Init = 0x33;
     2c2:	83 e3       	ldi	r24, 0x33	; 51
     2c4:	8a 83       	std	Y+2, r24	; 0x02
	
	for (uint8_t i = 0; i < 2; i++)
     2c6:	10 e0       	ldi	r17, 0x00	; 0
     2c8:	13 c0       	rjmp	.+38     	; 0x2f0 <LCD_Init+0x4a>
	{
		if (i == 0)
     2ca:	11 11       	cpse	r17, r1
     2cc:	06 c0       	rjmp	.+12     	; 0x2da <LCD_Init+0x34>
		BusLinesState(&empty_Init, 0);
     2ce:	60 e0       	ldi	r22, 0x00	; 0
     2d0:	ce 01       	movw	r24, r28
     2d2:	02 96       	adiw	r24, 0x02	; 2
     2d4:	0e 94 5f 00 	call	0xbe	; 0xbe <BusLinesState>
     2d8:	0a c0       	rjmp	.+20     	; 0x2ee <LCD_Init+0x48>
		else if (i == 1)
     2da:	11 30       	cpi	r17, 0x01	; 1
     2dc:	41 f4       	brne	.+16     	; 0x2ee <LCD_Init+0x48>
		{
			empty_Init--;
     2de:	8a 81       	ldd	r24, Y+2	; 0x02
     2e0:	81 50       	subi	r24, 0x01	; 1
     2e2:	8a 83       	std	Y+2, r24	; 0x02
			BusLinesState(&empty_Init, 0);
     2e4:	60 e0       	ldi	r22, 0x00	; 0
     2e6:	ce 01       	movw	r24, r28
     2e8:	02 96       	adiw	r24, 0x02	; 2
     2ea:	0e 94 5f 00 	call	0xbe	; 0xbe <BusLinesState>
	_delay_ms(15);
	
	uint8_t bus_data = 0b100000;
	uint8_t empty_Init = 0x33;
	
	for (uint8_t i = 0; i < 2; i++)
     2ee:	1f 5f       	subi	r17, 0xFF	; 255
     2f0:	12 30       	cpi	r17, 0x02	; 2
     2f2:	58 f3       	brcs	.-42     	; 0x2ca <LCD_Init+0x24>
			BusLinesState(&empty_Init, 0);
		}
	}
	
	if (Data_Length == 1) Sbit(bus_data, 4);
	else Cbit(bus_data, 4);
     2f4:	89 81       	ldd	r24, Y+1	; 0x01
     2f6:	8f 7e       	andi	r24, 0xEF	; 239
	if (NumberOfLines == 1) Sbit(bus_data, 3);
	else Cbit(bus_data, 3);
	if (Font == 1) Sbit(bus_data, 2);
     2f8:	8c 60       	ori	r24, 0x0C	; 12
     2fa:	89 83       	std	Y+1, r24	; 0x01
	else Cbit(bus_data, 2);
	
	BusLinesState(&bus_data, 0);
     2fc:	60 e0       	ldi	r22, 0x00	; 0
     2fe:	ce 01       	movw	r24, r28
     300:	01 96       	adiw	r24, 0x01	; 1
     302:	0e 94 5f 00 	call	0xbe	; 0xbe <BusLinesState>
	
	for (uint8_t i = 0; i < 8; i++)
     306:	10 e0       	ldi	r17, 0x00	; 0
     308:	0e c0       	rjmp	.+28     	; 0x326 <LCD_Init+0x80>
	LCD_UserSymbolsWrite(i, &UserSymbol[i][0]);
     30a:	61 2f       	mov	r22, r17
     30c:	70 e0       	ldi	r23, 0x00	; 0
     30e:	66 0f       	add	r22, r22
     310:	77 1f       	adc	r23, r23
     312:	66 0f       	add	r22, r22
     314:	77 1f       	adc	r23, r23
     316:	66 0f       	add	r22, r22
     318:	77 1f       	adc	r23, r23
     31a:	64 5f       	subi	r22, 0xF4	; 244
     31c:	7e 4f       	sbci	r23, 0xFE	; 254
     31e:	81 2f       	mov	r24, r17
     320:	0e 94 2d 01 	call	0x25a	; 0x25a <LCD_UserSymbolsWrite>
	if (Font == 1) Sbit(bus_data, 2);
	else Cbit(bus_data, 2);
	
	BusLinesState(&bus_data, 0);
	
	for (uint8_t i = 0; i < 8; i++)
     324:	1f 5f       	subi	r17, 0xFF	; 255
     326:	18 30       	cpi	r17, 0x08	; 8
     328:	80 f3       	brcs	.-32     	; 0x30a <LCD_Init+0x64>
	LCD_UserSymbolsWrite(i, &UserSymbol[i][0]);
}
     32a:	0f 90       	pop	r0
     32c:	0f 90       	pop	r0
     32e:	df 91       	pop	r29
     330:	cf 91       	pop	r28
     332:	1f 91       	pop	r17
     334:	08 95       	ret

00000336 <LCD_Show>:
		data++;
	}
}

void LCD_Show(uint8_t Addr, uint8_t Str, uint8_t Cursor)
{
     336:	cf 93       	push	r28
     338:	df 93       	push	r29
     33a:	00 d0       	rcall	.+0      	; 0x33c <LCD_Show+0x6>
     33c:	cd b7       	in	r28, 0x3d	; 61
     33e:	de b7       	in	r29, 0x3e	; 62
     340:	8a 83       	std	Y+2, r24	; 0x02
	uint8_t x = 0;
	
	if (Str == 0)
     342:	61 11       	cpse	r22, r1
     344:	0c c0       	rjmp	.+24     	; 0x35e <LCD_Show+0x28>
	{
		x=FirstStr_StartPosition_DDRAM_Addr+Cursor;
     346:	40 58       	subi	r20, 0x80	; 128
     348:	49 83       	std	Y+1, r20	; 0x01
		
		BusLinesState(&x, 0);
     34a:	ce 01       	movw	r24, r28
     34c:	01 96       	adiw	r24, 0x01	; 1
     34e:	0e 94 5f 00 	call	0xbe	; 0xbe <BusLinesState>
		BusLinesState(&Addr, 1);
     352:	61 e0       	ldi	r22, 0x01	; 1
     354:	ce 01       	movw	r24, r28
     356:	02 96       	adiw	r24, 0x02	; 2
     358:	0e 94 5f 00 	call	0xbe	; 0xbe <BusLinesState>
     35c:	0e c0       	rjmp	.+28     	; 0x37a <LCD_Show+0x44>
	}
	else
	if (Str == 1)
     35e:	61 30       	cpi	r22, 0x01	; 1
     360:	61 f4       	brne	.+24     	; 0x37a <LCD_Show+0x44>
	{
		x=SecondStr_StartPosition_DDRAM_Addr+Cursor;
     362:	40 54       	subi	r20, 0x40	; 64
     364:	49 83       	std	Y+1, r20	; 0x01
		
		BusLinesState(&x, 0);
     366:	60 e0       	ldi	r22, 0x00	; 0
     368:	ce 01       	movw	r24, r28
     36a:	01 96       	adiw	r24, 0x01	; 1
     36c:	0e 94 5f 00 	call	0xbe	; 0xbe <BusLinesState>
		BusLinesState(&Addr, 1);
     370:	61 e0       	ldi	r22, 0x01	; 1
     372:	ce 01       	movw	r24, r28
     374:	02 96       	adiw	r24, 0x02	; 2
     376:	0e 94 5f 00 	call	0xbe	; 0xbe <BusLinesState>
	}
}
     37a:	0f 90       	pop	r0
     37c:	0f 90       	pop	r0
     37e:	df 91       	pop	r29
     380:	cf 91       	pop	r28
     382:	08 95       	ret

00000384 <LCD_String>:

void LCD_String(char str1[], uint8_t y, uint8_t x)
{
     384:	ff 92       	push	r15
     386:	0f 93       	push	r16
     388:	1f 93       	push	r17
     38a:	cf 93       	push	r28
     38c:	df 93       	push	r29
     38e:	8c 01       	movw	r16, r24
     390:	f6 2e       	mov	r15, r22
     392:	d4 2f       	mov	r29, r20
	uint8_t n;
	for(n = 0; str1[n] != '\0'; n++)
     394:	c0 e0       	ldi	r28, 0x00	; 0
     396:	06 c0       	rjmp	.+12     	; 0x3a4 <LCD_String+0x20>
	LCD_Show(str1[n], y, n + x);
     398:	4c 2f       	mov	r20, r28
     39a:	4d 0f       	add	r20, r29
     39c:	6f 2d       	mov	r22, r15
     39e:	0e 94 9b 01 	call	0x336	; 0x336 <LCD_Show>
}

void LCD_String(char str1[], uint8_t y, uint8_t x)
{
	uint8_t n;
	for(n = 0; str1[n] != '\0'; n++)
     3a2:	cf 5f       	subi	r28, 0xFF	; 255
     3a4:	f8 01       	movw	r30, r16
     3a6:	ec 0f       	add	r30, r28
     3a8:	f1 1d       	adc	r31, r1
     3aa:	80 81       	ld	r24, Z
     3ac:	81 11       	cpse	r24, r1
     3ae:	f4 cf       	rjmp	.-24     	; 0x398 <LCD_String+0x14>
	LCD_Show(str1[n], y, n + x);
}
     3b0:	df 91       	pop	r29
     3b2:	cf 91       	pop	r28
     3b4:	1f 91       	pop	r17
     3b6:	0f 91       	pop	r16
     3b8:	ff 90       	pop	r15
     3ba:	08 95       	ret

000003bc <drawBigDigits>:

void drawBigDigits(uint8_t digit, uint8_t place)
{
     3bc:	1f 93       	push	r17
     3be:	cf 93       	push	r28
     3c0:	df 93       	push	r29
		switch (digit) {
     3c2:	90 e0       	ldi	r25, 0x00	; 0
     3c4:	8a 30       	cpi	r24, 0x0A	; 10
     3c6:	91 05       	cpc	r25, r1
     3c8:	08 f0       	brcs	.+2      	; 0x3cc <drawBigDigits+0x10>
     3ca:	67 c1       	rjmp	.+718    	; 0x69a <__EEPROM_REGION_LENGTH__+0x29a>
     3cc:	c6 2f       	mov	r28, r22
     3ce:	fc 01       	movw	r30, r24
     3d0:	ec 5c       	subi	r30, 0xCC	; 204
     3d2:	ff 4f       	sbci	r31, 0xFF	; 255
     3d4:	0c 94 26 06 	jmp	0xc4c	; 0xc4c <__tablejump2__>
			case 0:

			LCD_Show(0, 0, place);
     3d8:	46 2f       	mov	r20, r22
     3da:	60 e0       	ldi	r22, 0x00	; 0
     3dc:	80 e0       	ldi	r24, 0x00	; 0
     3de:	0e 94 9b 01 	call	0x336	; 0x336 <LCD_Show>
			LCD_Show(1, 0, place + 1);
     3e2:	11 e0       	ldi	r17, 0x01	; 1
     3e4:	1c 0f       	add	r17, r28
     3e6:	41 2f       	mov	r20, r17
     3e8:	60 e0       	ldi	r22, 0x00	; 0
     3ea:	81 e0       	ldi	r24, 0x01	; 1
     3ec:	0e 94 9b 01 	call	0x336	; 0x336 <LCD_Show>
			LCD_Show(2, 0, place + 2);
     3f0:	d2 e0       	ldi	r29, 0x02	; 2
     3f2:	dc 0f       	add	r29, r28
     3f4:	4d 2f       	mov	r20, r29
     3f6:	60 e0       	ldi	r22, 0x00	; 0
     3f8:	82 e0       	ldi	r24, 0x02	; 2
     3fa:	0e 94 9b 01 	call	0x336	; 0x336 <LCD_Show>
			LCD_Show(3, 1, place);
     3fe:	4c 2f       	mov	r20, r28
     400:	61 e0       	ldi	r22, 0x01	; 1
     402:	83 e0       	ldi	r24, 0x03	; 3
     404:	0e 94 9b 01 	call	0x336	; 0x336 <LCD_Show>
			LCD_Show(4, 1, place + 1);
     408:	41 2f       	mov	r20, r17
     40a:	61 e0       	ldi	r22, 0x01	; 1
     40c:	84 e0       	ldi	r24, 0x04	; 4
     40e:	0e 94 9b 01 	call	0x336	; 0x336 <LCD_Show>
			LCD_Show(5, 1, place + 2);
     412:	4d 2f       	mov	r20, r29
     414:	61 e0       	ldi	r22, 0x01	; 1
     416:	85 e0       	ldi	r24, 0x05	; 5
     418:	0e 94 9b 01 	call	0x336	; 0x336 <LCD_Show>
			break;
     41c:	3e c1       	rjmp	.+636    	; 0x69a <__EEPROM_REGION_LENGTH__+0x29a>
			
			case 1:
			LCD_Show(1, 0, place);
     41e:	46 2f       	mov	r20, r22
     420:	60 e0       	ldi	r22, 0x00	; 0
     422:	81 e0       	ldi	r24, 0x01	; 1
     424:	0e 94 9b 01 	call	0x336	; 0x336 <LCD_Show>
			LCD_Show(2, 0, place + 1);
     428:	11 e0       	ldi	r17, 0x01	; 1
     42a:	1c 0f       	add	r17, r28
     42c:	41 2f       	mov	r20, r17
     42e:	60 e0       	ldi	r22, 0x00	; 0
     430:	82 e0       	ldi	r24, 0x02	; 2
     432:	0e 94 9b 01 	call	0x336	; 0x336 <LCD_Show>
			LCD_String(" ", 0, place + 2);
     436:	d2 e0       	ldi	r29, 0x02	; 2
     438:	dc 0f       	add	r29, r28
     43a:	4d 2f       	mov	r20, r29
     43c:	60 e0       	ldi	r22, 0x00	; 0
     43e:	8b e5       	ldi	r24, 0x5B	; 91
     440:	91 e0       	ldi	r25, 0x01	; 1
     442:	0e 94 c2 01 	call	0x384	; 0x384 <LCD_String>
			LCD_Show(4, 1, place);
     446:	4c 2f       	mov	r20, r28
     448:	61 e0       	ldi	r22, 0x01	; 1
     44a:	84 e0       	ldi	r24, 0x04	; 4
     44c:	0e 94 9b 01 	call	0x336	; 0x336 <LCD_Show>
			LCD_Show(7, 1, place + 1);
     450:	41 2f       	mov	r20, r17
     452:	61 e0       	ldi	r22, 0x01	; 1
     454:	87 e0       	ldi	r24, 0x07	; 7
     456:	0e 94 9b 01 	call	0x336	; 0x336 <LCD_Show>
			LCD_Show(4, 1, place + 2);
     45a:	4d 2f       	mov	r20, r29
     45c:	61 e0       	ldi	r22, 0x01	; 1
     45e:	84 e0       	ldi	r24, 0x04	; 4
     460:	0e 94 9b 01 	call	0x336	; 0x336 <LCD_Show>
			break;
     464:	1a c1       	rjmp	.+564    	; 0x69a <__EEPROM_REGION_LENGTH__+0x29a>
			
			case 2:
			LCD_Show(6, 0, place);
     466:	46 2f       	mov	r20, r22
     468:	60 e0       	ldi	r22, 0x00	; 0
     46a:	86 e0       	ldi	r24, 0x06	; 6
     46c:	0e 94 9b 01 	call	0x336	; 0x336 <LCD_Show>
			LCD_Show(6, 0, place + 1);
     470:	11 e0       	ldi	r17, 0x01	; 1
     472:	1c 0f       	add	r17, r28
     474:	41 2f       	mov	r20, r17
     476:	60 e0       	ldi	r22, 0x00	; 0
     478:	86 e0       	ldi	r24, 0x06	; 6
     47a:	0e 94 9b 01 	call	0x336	; 0x336 <LCD_Show>
			LCD_Show(2, 0, place + 2);
     47e:	d2 e0       	ldi	r29, 0x02	; 2
     480:	dc 0f       	add	r29, r28
     482:	4d 2f       	mov	r20, r29
     484:	60 e0       	ldi	r22, 0x00	; 0
     486:	82 e0       	ldi	r24, 0x02	; 2
     488:	0e 94 9b 01 	call	0x336	; 0x336 <LCD_Show>
			LCD_Show(3, 1, place);
     48c:	4c 2f       	mov	r20, r28
     48e:	61 e0       	ldi	r22, 0x01	; 1
     490:	83 e0       	ldi	r24, 0x03	; 3
     492:	0e 94 9b 01 	call	0x336	; 0x336 <LCD_Show>
			LCD_Show(4, 1, place + 1);
     496:	41 2f       	mov	r20, r17
     498:	61 e0       	ldi	r22, 0x01	; 1
     49a:	84 e0       	ldi	r24, 0x04	; 4
     49c:	0e 94 9b 01 	call	0x336	; 0x336 <LCD_Show>
			LCD_Show(4, 1, place + 2);
     4a0:	4d 2f       	mov	r20, r29
     4a2:	61 e0       	ldi	r22, 0x01	; 1
     4a4:	84 e0       	ldi	r24, 0x04	; 4
     4a6:	0e 94 9b 01 	call	0x336	; 0x336 <LCD_Show>
			break;
     4aa:	f7 c0       	rjmp	.+494    	; 0x69a <__EEPROM_REGION_LENGTH__+0x29a>
			
			case 3:
			LCD_Show(6, 0, place);
     4ac:	46 2f       	mov	r20, r22
     4ae:	60 e0       	ldi	r22, 0x00	; 0
     4b0:	86 e0       	ldi	r24, 0x06	; 6
     4b2:	0e 94 9b 01 	call	0x336	; 0x336 <LCD_Show>
			LCD_Show(6, 0, place + 1);
     4b6:	11 e0       	ldi	r17, 0x01	; 1
     4b8:	1c 0f       	add	r17, r28
     4ba:	41 2f       	mov	r20, r17
     4bc:	60 e0       	ldi	r22, 0x00	; 0
     4be:	86 e0       	ldi	r24, 0x06	; 6
     4c0:	0e 94 9b 01 	call	0x336	; 0x336 <LCD_Show>
			LCD_Show(2, 0, place + 2);
     4c4:	d2 e0       	ldi	r29, 0x02	; 2
     4c6:	dc 0f       	add	r29, r28
     4c8:	4d 2f       	mov	r20, r29
     4ca:	60 e0       	ldi	r22, 0x00	; 0
     4cc:	82 e0       	ldi	r24, 0x02	; 2
     4ce:	0e 94 9b 01 	call	0x336	; 0x336 <LCD_Show>
			LCD_Show(4, 1, place);
     4d2:	4c 2f       	mov	r20, r28
     4d4:	61 e0       	ldi	r22, 0x01	; 1
     4d6:	84 e0       	ldi	r24, 0x04	; 4
     4d8:	0e 94 9b 01 	call	0x336	; 0x336 <LCD_Show>
			LCD_Show(4, 1, place + 1);
     4dc:	41 2f       	mov	r20, r17
     4de:	61 e0       	ldi	r22, 0x01	; 1
     4e0:	84 e0       	ldi	r24, 0x04	; 4
     4e2:	0e 94 9b 01 	call	0x336	; 0x336 <LCD_Show>
			LCD_Show(5, 1, place + 2);
     4e6:	4d 2f       	mov	r20, r29
     4e8:	61 e0       	ldi	r22, 0x01	; 1
     4ea:	85 e0       	ldi	r24, 0x05	; 5
     4ec:	0e 94 9b 01 	call	0x336	; 0x336 <LCD_Show>
			break;
     4f0:	d4 c0       	rjmp	.+424    	; 0x69a <__EEPROM_REGION_LENGTH__+0x29a>
			
			case 4:
			LCD_Show(3, 0, place);
     4f2:	46 2f       	mov	r20, r22
     4f4:	60 e0       	ldi	r22, 0x00	; 0
     4f6:	83 e0       	ldi	r24, 0x03	; 3
     4f8:	0e 94 9b 01 	call	0x336	; 0x336 <LCD_Show>
			LCD_Show(4, 0, place + 1);
     4fc:	11 e0       	ldi	r17, 0x01	; 1
     4fe:	1c 0f       	add	r17, r28
     500:	41 2f       	mov	r20, r17
     502:	60 e0       	ldi	r22, 0x00	; 0
     504:	84 e0       	ldi	r24, 0x04	; 4
     506:	0e 94 9b 01 	call	0x336	; 0x336 <LCD_Show>
			LCD_Show(7, 0, place + 2);
     50a:	d2 e0       	ldi	r29, 0x02	; 2
     50c:	dc 0f       	add	r29, r28
     50e:	4d 2f       	mov	r20, r29
     510:	60 e0       	ldi	r22, 0x00	; 0
     512:	87 e0       	ldi	r24, 0x07	; 7
     514:	0e 94 9b 01 	call	0x336	; 0x336 <LCD_Show>
			LCD_String(" ", 1, place);
     518:	4c 2f       	mov	r20, r28
     51a:	61 e0       	ldi	r22, 0x01	; 1
     51c:	8b e5       	ldi	r24, 0x5B	; 91
     51e:	91 e0       	ldi	r25, 0x01	; 1
     520:	0e 94 c2 01 	call	0x384	; 0x384 <LCD_String>
			LCD_String(" ", 1, place + 1);
     524:	41 2f       	mov	r20, r17
     526:	61 e0       	ldi	r22, 0x01	; 1
     528:	8b e5       	ldi	r24, 0x5B	; 91
     52a:	91 e0       	ldi	r25, 0x01	; 1
     52c:	0e 94 c2 01 	call	0x384	; 0x384 <LCD_String>
			LCD_Show(7, 1, place + 2);
     530:	4d 2f       	mov	r20, r29
     532:	61 e0       	ldi	r22, 0x01	; 1
     534:	87 e0       	ldi	r24, 0x07	; 7
     536:	0e 94 9b 01 	call	0x336	; 0x336 <LCD_Show>
			break;
     53a:	af c0       	rjmp	.+350    	; 0x69a <__EEPROM_REGION_LENGTH__+0x29a>
			
			case 5:
			LCD_Show(3, 0, place);
     53c:	46 2f       	mov	r20, r22
     53e:	60 e0       	ldi	r22, 0x00	; 0
     540:	83 e0       	ldi	r24, 0x03	; 3
     542:	0e 94 9b 01 	call	0x336	; 0x336 <LCD_Show>
			LCD_Show(6, 0, place + 1);
     546:	11 e0       	ldi	r17, 0x01	; 1
     548:	1c 0f       	add	r17, r28
     54a:	41 2f       	mov	r20, r17
     54c:	60 e0       	ldi	r22, 0x00	; 0
     54e:	86 e0       	ldi	r24, 0x06	; 6
     550:	0e 94 9b 01 	call	0x336	; 0x336 <LCD_Show>
			LCD_Show(6, 0, place + 2);
     554:	d2 e0       	ldi	r29, 0x02	; 2
     556:	dc 0f       	add	r29, r28
     558:	4d 2f       	mov	r20, r29
     55a:	60 e0       	ldi	r22, 0x00	; 0
     55c:	86 e0       	ldi	r24, 0x06	; 6
     55e:	0e 94 9b 01 	call	0x336	; 0x336 <LCD_Show>
			LCD_Show(4, 1, place);
     562:	4c 2f       	mov	r20, r28
     564:	61 e0       	ldi	r22, 0x01	; 1
     566:	84 e0       	ldi	r24, 0x04	; 4
     568:	0e 94 9b 01 	call	0x336	; 0x336 <LCD_Show>
			LCD_Show(4, 1, place + 1);
     56c:	41 2f       	mov	r20, r17
     56e:	61 e0       	ldi	r22, 0x01	; 1
     570:	84 e0       	ldi	r24, 0x04	; 4
     572:	0e 94 9b 01 	call	0x336	; 0x336 <LCD_Show>
			LCD_Show(5, 1, place + 2);
     576:	4d 2f       	mov	r20, r29
     578:	61 e0       	ldi	r22, 0x01	; 1
     57a:	85 e0       	ldi	r24, 0x05	; 5
     57c:	0e 94 9b 01 	call	0x336	; 0x336 <LCD_Show>
			break;
     580:	8c c0       	rjmp	.+280    	; 0x69a <__EEPROM_REGION_LENGTH__+0x29a>
			
			case 6:
			LCD_Show(0, 0, place);
     582:	46 2f       	mov	r20, r22
     584:	60 e0       	ldi	r22, 0x00	; 0
     586:	80 e0       	ldi	r24, 0x00	; 0
     588:	0e 94 9b 01 	call	0x336	; 0x336 <LCD_Show>
			LCD_Show(6, 0, place + 1);
     58c:	11 e0       	ldi	r17, 0x01	; 1
     58e:	1c 0f       	add	r17, r28
     590:	41 2f       	mov	r20, r17
     592:	60 e0       	ldi	r22, 0x00	; 0
     594:	86 e0       	ldi	r24, 0x06	; 6
     596:	0e 94 9b 01 	call	0x336	; 0x336 <LCD_Show>
			LCD_Show(6, 0, place + 2);
     59a:	d2 e0       	ldi	r29, 0x02	; 2
     59c:	dc 0f       	add	r29, r28
     59e:	4d 2f       	mov	r20, r29
     5a0:	60 e0       	ldi	r22, 0x00	; 0
     5a2:	86 e0       	ldi	r24, 0x06	; 6
     5a4:	0e 94 9b 01 	call	0x336	; 0x336 <LCD_Show>
			LCD_Show(3, 1, place);
     5a8:	4c 2f       	mov	r20, r28
     5aa:	61 e0       	ldi	r22, 0x01	; 1
     5ac:	83 e0       	ldi	r24, 0x03	; 3
     5ae:	0e 94 9b 01 	call	0x336	; 0x336 <LCD_Show>
			LCD_Show(4, 1, place + 1);
     5b2:	41 2f       	mov	r20, r17
     5b4:	61 e0       	ldi	r22, 0x01	; 1
     5b6:	84 e0       	ldi	r24, 0x04	; 4
     5b8:	0e 94 9b 01 	call	0x336	; 0x336 <LCD_Show>
			LCD_Show(5, 1, place + 2);
     5bc:	4d 2f       	mov	r20, r29
     5be:	61 e0       	ldi	r22, 0x01	; 1
     5c0:	85 e0       	ldi	r24, 0x05	; 5
     5c2:	0e 94 9b 01 	call	0x336	; 0x336 <LCD_Show>
			break;
     5c6:	69 c0       	rjmp	.+210    	; 0x69a <__EEPROM_REGION_LENGTH__+0x29a>
			
			case 7:
			LCD_Show(1, 0, place);
     5c8:	46 2f       	mov	r20, r22
     5ca:	60 e0       	ldi	r22, 0x00	; 0
     5cc:	81 e0       	ldi	r24, 0x01	; 1
     5ce:	0e 94 9b 01 	call	0x336	; 0x336 <LCD_Show>
			LCD_Show(1, 0, place + 1);
     5d2:	41 e0       	ldi	r20, 0x01	; 1
     5d4:	4c 0f       	add	r20, r28
     5d6:	60 e0       	ldi	r22, 0x00	; 0
     5d8:	81 e0       	ldi	r24, 0x01	; 1
     5da:	0e 94 9b 01 	call	0x336	; 0x336 <LCD_Show>
			LCD_Show(2, 0, place + 2);
     5de:	d2 e0       	ldi	r29, 0x02	; 2
     5e0:	dc 0f       	add	r29, r28
     5e2:	4d 2f       	mov	r20, r29
     5e4:	60 e0       	ldi	r22, 0x00	; 0
     5e6:	82 e0       	ldi	r24, 0x02	; 2
     5e8:	0e 94 9b 01 	call	0x336	; 0x336 <LCD_Show>
			LCD_String(" ", 1, place);
     5ec:	4c 2f       	mov	r20, r28
     5ee:	61 e0       	ldi	r22, 0x01	; 1
     5f0:	8b e5       	ldi	r24, 0x5B	; 91
     5f2:	91 e0       	ldi	r25, 0x01	; 1
     5f4:	0e 94 c2 01 	call	0x384	; 0x384 <LCD_String>
			LCD_String(" ", 1, place + 2);
     5f8:	4d 2f       	mov	r20, r29
     5fa:	61 e0       	ldi	r22, 0x01	; 1
     5fc:	8b e5       	ldi	r24, 0x5B	; 91
     5fe:	91 e0       	ldi	r25, 0x01	; 1
     600:	0e 94 c2 01 	call	0x384	; 0x384 <LCD_String>
			LCD_Show(7, 1, place + 2);
     604:	4d 2f       	mov	r20, r29
     606:	61 e0       	ldi	r22, 0x01	; 1
     608:	87 e0       	ldi	r24, 0x07	; 7
     60a:	0e 94 9b 01 	call	0x336	; 0x336 <LCD_Show>
			break;
     60e:	45 c0       	rjmp	.+138    	; 0x69a <__EEPROM_REGION_LENGTH__+0x29a>
			
			case 8:
			LCD_Show(0, 0, place);
     610:	46 2f       	mov	r20, r22
     612:	60 e0       	ldi	r22, 0x00	; 0
     614:	80 e0       	ldi	r24, 0x00	; 0
     616:	0e 94 9b 01 	call	0x336	; 0x336 <LCD_Show>
			LCD_Show(6, 0, place + 1);
     61a:	11 e0       	ldi	r17, 0x01	; 1
     61c:	1c 0f       	add	r17, r28
     61e:	41 2f       	mov	r20, r17
     620:	60 e0       	ldi	r22, 0x00	; 0
     622:	86 e0       	ldi	r24, 0x06	; 6
     624:	0e 94 9b 01 	call	0x336	; 0x336 <LCD_Show>
			LCD_Show(2, 0, place + 2);
     628:	d2 e0       	ldi	r29, 0x02	; 2
     62a:	dc 0f       	add	r29, r28
     62c:	4d 2f       	mov	r20, r29
     62e:	60 e0       	ldi	r22, 0x00	; 0
     630:	82 e0       	ldi	r24, 0x02	; 2
     632:	0e 94 9b 01 	call	0x336	; 0x336 <LCD_Show>
			LCD_Show(3, 1, place);
     636:	4c 2f       	mov	r20, r28
     638:	61 e0       	ldi	r22, 0x01	; 1
     63a:	83 e0       	ldi	r24, 0x03	; 3
     63c:	0e 94 9b 01 	call	0x336	; 0x336 <LCD_Show>
			LCD_Show(4, 1, place + 1);
     640:	41 2f       	mov	r20, r17
     642:	61 e0       	ldi	r22, 0x01	; 1
     644:	84 e0       	ldi	r24, 0x04	; 4
     646:	0e 94 9b 01 	call	0x336	; 0x336 <LCD_Show>
			LCD_Show(5, 1, place + 2);
     64a:	4d 2f       	mov	r20, r29
     64c:	61 e0       	ldi	r22, 0x01	; 1
     64e:	85 e0       	ldi	r24, 0x05	; 5
     650:	0e 94 9b 01 	call	0x336	; 0x336 <LCD_Show>
			break;
     654:	22 c0       	rjmp	.+68     	; 0x69a <__EEPROM_REGION_LENGTH__+0x29a>
			
			case 9:
			LCD_Show(0, 0, place);
     656:	46 2f       	mov	r20, r22
     658:	60 e0       	ldi	r22, 0x00	; 0
     65a:	80 e0       	ldi	r24, 0x00	; 0
     65c:	0e 94 9b 01 	call	0x336	; 0x336 <LCD_Show>
			LCD_Show(6, 0, place + 1);
     660:	11 e0       	ldi	r17, 0x01	; 1
     662:	1c 0f       	add	r17, r28
     664:	41 2f       	mov	r20, r17
     666:	60 e0       	ldi	r22, 0x00	; 0
     668:	86 e0       	ldi	r24, 0x06	; 6
     66a:	0e 94 9b 01 	call	0x336	; 0x336 <LCD_Show>
			LCD_Show(2, 0, place + 2);
     66e:	d2 e0       	ldi	r29, 0x02	; 2
     670:	dc 0f       	add	r29, r28
     672:	4d 2f       	mov	r20, r29
     674:	60 e0       	ldi	r22, 0x00	; 0
     676:	82 e0       	ldi	r24, 0x02	; 2
     678:	0e 94 9b 01 	call	0x336	; 0x336 <LCD_Show>
			LCD_Show(4, 1, place);
     67c:	4c 2f       	mov	r20, r28
     67e:	61 e0       	ldi	r22, 0x01	; 1
     680:	84 e0       	ldi	r24, 0x04	; 4
     682:	0e 94 9b 01 	call	0x336	; 0x336 <LCD_Show>
			LCD_Show(4, 1, place + 1);
     686:	41 2f       	mov	r20, r17
     688:	61 e0       	ldi	r22, 0x01	; 1
     68a:	84 e0       	ldi	r24, 0x04	; 4
     68c:	0e 94 9b 01 	call	0x336	; 0x336 <LCD_Show>
			LCD_Show(5, 1, place + 2);
     690:	4d 2f       	mov	r20, r29
     692:	61 e0       	ldi	r22, 0x01	; 1
     694:	85 e0       	ldi	r24, 0x05	; 5
     696:	0e 94 9b 01 	call	0x336	; 0x336 <LCD_Show>
			break;
		}
}
     69a:	df 91       	pop	r29
     69c:	cf 91       	pop	r28
     69e:	1f 91       	pop	r17
     6a0:	08 95       	ret

000006a2 <irrTimerInit>:
unsigned int time;
unsigned char protocolLetter;

void irrTimerInit()
{
	TIMER_INIT();
     6a2:	85 e0       	ldi	r24, 0x05	; 5
     6a4:	85 bd       	out	0x25, r24	; 37
	if (IR_ENABLE_PULLUP)
	IR_PORT |= _BV(IR_PIN_NUM);
     6a6:	85 b1       	in	r24, 0x05	; 5
     6a8:	84 60       	ori	r24, 0x04	; 4
     6aa:	85 b9       	out	0x05, r24	; 5
     6ac:	08 95       	ret

000006ae <irrProtocolNEC>:
	unsigned int time;
	unsigned char i;
	unsigned int invertedCode = 0;
	static unsigned int lastCode = 0;

	while (IR_HIGH);/*
     6ae:	1a 99       	sbic	0x03, 2	; 3
     6b0:	fe cf       	rjmp	.-4      	; 0x6ae <irrProtocolNEC>
	if (TIMER_REG > CONV(5000))
	return 0;*/

	time = TIMER_REG;
     6b2:	96 b5       	in	r25, 0x26	; 38
	TIMER_REG = 0;
     6b4:	16 bc       	out	0x26, r1	; 38

	PORTC ^= _BV(PINC5);
     6b6:	28 b1       	in	r18, 0x08	; 8
     6b8:	80 e2       	ldi	r24, 0x20	; 32
     6ba:	82 27       	eor	r24, r18
     6bc:	88 b9       	out	0x08, r24	; 8
	
	if (time > CONV(4200)) // 4200 us
     6be:	91 32       	cpi	r25, 0x21	; 33
     6c0:	40 f0       	brcs	.+16     	; 0x6d2 <irrProtocolNEC+0x24>
	{
		repeatCount = 0; // regular button press
     6c2:	10 92 85 01 	sts	0x0185, r1	; 0x800185 <repeatCount>
unsigned int irrProtocolNEC(unsigned int code)
{
	unsigned char bitVal;
	unsigned int time;
	unsigned char i;
	unsigned int invertedCode = 0;
     6c6:	60 e0       	ldi	r22, 0x00	; 0
     6c8:	70 e0       	ldi	r23, 0x00	; 0
		return 0;
	}
	
	code = 0;
	
	for (i = 0; i < 32; i++) // Read 32 data bits
     6ca:	80 e0       	ldi	r24, 0x00	; 0
			return lastCode;
		}
		return 0;
	}
	
	code = 0;
     6cc:	40 e0       	ldi	r20, 0x00	; 0
     6ce:	50 e0       	ldi	r21, 0x00	; 0
	
	for (i = 0; i < 32; i++) // Read 32 data bits
     6d0:	32 c0       	rjmp	.+100    	; 0x736 <irrProtocolNEC+0x88>
	
	if (time > CONV(4200)) // 4200 us
	{
		repeatCount = 0; // regular button press
		} else {
		if (++repeatCount == NEC_REPEAT_RATE) // hold button press send last keycode
     6d2:	80 91 85 01 	lds	r24, 0x0185	; 0x800185 <repeatCount>
     6d6:	8f 5f       	subi	r24, 0xFF	; 255
     6d8:	80 93 85 01 	sts	0x0185, r24	; 0x800185 <repeatCount>
     6dc:	85 30       	cpi	r24, 0x05	; 5
     6de:	c9 f5       	brne	.+114    	; 0x752 <irrProtocolNEC+0xa4>
		{
			repeatCount = 0;
     6e0:	10 92 85 01 	sts	0x0185, r1	; 0x800185 <repeatCount>
			return lastCode;
     6e4:	80 91 81 01 	lds	r24, 0x0181	; 0x800181 <lastCode.2134>
     6e8:	90 91 82 01 	lds	r25, 0x0182	; 0x800182 <lastCode.2134+0x1>
     6ec:	08 95       	ret
	
	code = 0;
	
	for (i = 0; i < 32; i++) // Read 32 data bits
	{
		while (IR_LOW);
     6ee:	1a 9b       	sbis	0x03, 2	; 3
     6f0:	fe cf       	rjmp	.-4      	; 0x6ee <irrProtocolNEC+0x40>
		/*	if (TIMER_REG > CONV(5000))
		return 0;*/
		while (IR_HIGH);/*
     6f2:	1a 99       	sbic	0x03, 2	; 3
     6f4:	fe cf       	rjmp	.-4      	; 0x6f2 <irrProtocolNEC+0x44>
		if (TIMER_REG > CONV(5000))
		return 0;*/

		time = TIMER_REG;
     6f6:	96 b5       	in	r25, 0x26	; 38
		TIMER_REG = 0;
     6f8:	16 bc       	out	0x26, r1	; 38
		
		if (time > CONV(1650)) // 1650 us
     6fa:	9d 30       	cpi	r25, 0x0D	; 13
     6fc:	10 f0       	brcs	.+4      	; 0x702 <irrProtocolNEC+0x54>
		{
			bitVal = 1;
     6fe:	31 e0       	ldi	r19, 0x01	; 1
     700:	01 c0       	rjmp	.+2      	; 0x704 <irrProtocolNEC+0x56>
			} else {
			bitVal = 0;
     702:	30 e0       	ldi	r19, 0x00	; 0
		}

		PORTC ^= _BV(PINC5);
     704:	28 b1       	in	r18, 0x08	; 8
     706:	90 e2       	ldi	r25, 0x20	; 32
     708:	92 27       	eor	r25, r18
     70a:	98 b9       	out	0x08, r25	; 8
		
		if ((i < 8) || (i >= 16 && i < 24))
     70c:	88 30       	cpi	r24, 0x08	; 8
     70e:	20 f0       	brcs	.+8      	; 0x718 <irrProtocolNEC+0x6a>
     710:	90 ef       	ldi	r25, 0xF0	; 240
     712:	98 0f       	add	r25, r24
     714:	98 30       	cpi	r25, 0x08	; 8
     716:	18 f4       	brcc	.+6      	; 0x71e <irrProtocolNEC+0x70>
		{
			code = code << 1;
     718:	44 0f       	add	r20, r20
     71a:	55 1f       	adc	r21, r21
			code |= bitVal;
     71c:	43 2b       	or	r20, r19
		}

		if ((i >= 8 && i < 16) || (i >= 24 && i < 32))
     71e:	98 ef       	ldi	r25, 0xF8	; 248
     720:	98 0f       	add	r25, r24
     722:	98 30       	cpi	r25, 0x08	; 8
     724:	20 f0       	brcs	.+8      	; 0x72e <irrProtocolNEC+0x80>
     726:	98 ee       	ldi	r25, 0xE8	; 232
     728:	98 0f       	add	r25, r24
     72a:	98 30       	cpi	r25, 0x08	; 8
     72c:	18 f4       	brcc	.+6      	; 0x734 <irrProtocolNEC+0x86>
		{
			invertedCode = invertedCode << 1;
     72e:	66 0f       	add	r22, r22
     730:	77 1f       	adc	r23, r23
			invertedCode |= bitVal;
     732:	63 2b       	or	r22, r19
		return 0;
	}
	
	code = 0;
	
	for (i = 0; i < 32; i++) // Read 32 data bits
     734:	8f 5f       	subi	r24, 0xFF	; 255
     736:	80 32       	cpi	r24, 0x20	; 32
     738:	d0 f2       	brcs	.-76     	; 0x6ee <irrProtocolNEC+0x40>
			invertedCode = invertedCode << 1;
			invertedCode |= bitVal;
		}
	}

	if (code != ~invertedCode)
     73a:	60 95       	com	r22
     73c:	70 95       	com	r23
     73e:	46 17       	cp	r20, r22
     740:	57 07       	cpc	r21, r23
     742:	51 f4       	brne	.+20     	; 0x758 <irrProtocolNEC+0xaa>
	return 0;

	lastCode = code;
     744:	50 93 82 01 	sts	0x0182, r21	; 0x800182 <lastCode.2134+0x1>
     748:	40 93 81 01 	sts	0x0181, r20	; 0x800181 <lastCode.2134>
	return code;
     74c:	84 2f       	mov	r24, r20
     74e:	95 2f       	mov	r25, r21
     750:	08 95       	ret
		if (++repeatCount == NEC_REPEAT_RATE) // hold button press send last keycode
		{
			repeatCount = 0;
			return lastCode;
		}
		return 0;
     752:	80 e0       	ldi	r24, 0x00	; 0
     754:	90 e0       	ldi	r25, 0x00	; 0
     756:	08 95       	ret
			invertedCode |= bitVal;
		}
	}

	if (code != ~invertedCode)
	return 0;
     758:	80 e0       	ldi	r24, 0x00	; 0
     75a:	90 e0       	ldi	r25, 0x00	; 0

	lastCode = code;
	return code;
}
     75c:	08 95       	ret

0000075e <irrProtocolRC5>:

	unsigned char errorBit;

	code = 0;

	while (TIMER_REG < CONV(3160)); // 3160 us offset from the first pulse
     75e:	86 b5       	in	r24, 0x26	; 38
     760:	88 31       	cpi	r24, 0x18	; 24
     762:	e8 f3       	brcs	.-6      	; 0x75e <irrProtocolRC5>
	TIMER_REG = 0;
     764:	16 bc       	out	0x26, r1	; 38

	repeatBit = IR_VAL; // Read "repeat" bit
     766:	83 b1       	in	r24, 0x03	; 3
     768:	58 2f       	mov	r21, r24
     76a:	54 70       	andi	r21, 0x04	; 4
	PORTC ^= _BV(PINC5);
     76c:	98 b1       	in	r25, 0x08	; 8
     76e:	80 e2       	ldi	r24, 0x20	; 32
     770:	89 27       	eor	r24, r25
     772:	88 b9       	out	0x08, r24	; 8

	// Move 1760us to the first data bit
	while (TIMER_REG < CONV(880));
     774:	86 b5       	in	r24, 0x26	; 38
     776:	86 30       	cpi	r24, 0x06	; 6
     778:	e8 f3       	brcs	.-6      	; 0x774 <irrProtocolRC5+0x16>
	TIMER_REG = 0;
     77a:	16 bc       	out	0x26, r1	; 38

	for (i = 0; i < 11; i++) // Read 12 data bits (5 address & 7 command)
     77c:	40 e0       	ldi	r20, 0x00	; 0
	static unsigned int lastCode = 0;
	static unsigned char lastRepeatBit = 0;

	unsigned char errorBit;

	code = 0;
     77e:	20 e0       	ldi	r18, 0x00	; 0
     780:	30 e0       	ldi	r19, 0x00	; 0

	// Move 1760us to the first data bit
	while (TIMER_REG < CONV(880));
	TIMER_REG = 0;

	for (i = 0; i < 11; i++) // Read 12 data bits (5 address & 7 command)
     782:	25 c0       	rjmp	.+74     	; 0x7ce <irrProtocolRC5+0x70>
	{
		code = code << 1;
     784:	22 0f       	add	r18, r18
     786:	33 1f       	adc	r19, r19
		PORTC ^= _BV(PINC5);
     788:	98 b1       	in	r25, 0x08	; 8
     78a:	80 e2       	ldi	r24, 0x20	; 32
     78c:	89 27       	eor	r24, r25
     78e:	88 b9       	out	0x08, r24	; 8
		errorBit = IR_VAL;
     790:	93 b1       	in	r25, 0x03	; 3
     792:	94 70       	andi	r25, 0x04	; 4
		//TIMER_REG = 0;

		// Read second half of bit, which has to be inverted
		// so we check whether the code is ok

		while (errorBit == IR_VAL)
     794:	04 c0       	rjmp	.+8      	; 0x79e <irrProtocolRC5+0x40>
		if (TIMER_REG > CONV(1000))
     796:	86 b5       	in	r24, 0x26	; 38
     798:	88 30       	cpi	r24, 0x08	; 8
     79a:	08 f0       	brcs	.+2      	; 0x79e <irrProtocolRC5+0x40>
     79c:	3f c0       	rjmp	.+126    	; 0x81c <__DATA_REGION_LENGTH__+0x1c>
		//TIMER_REG = 0;

		// Read second half of bit, which has to be inverted
		// so we check whether the code is ok

		while (errorBit == IR_VAL)
     79e:	83 b1       	in	r24, 0x03	; 3
     7a0:	84 70       	andi	r24, 0x04	; 4
     7a2:	98 17       	cp	r25, r24
     7a4:	c1 f3       	breq	.-16     	; 0x796 <irrProtocolRC5+0x38>
		if (TIMER_REG > CONV(1000))
		return 0;

		TIMER_REG = 0;
     7a6:	16 bc       	out	0x26, r1	; 38
		while (TIMER_REG < CONV(400));
     7a8:	86 b5       	in	r24, 0x26	; 38
     7aa:	83 30       	cpi	r24, 0x03	; 3
     7ac:	e8 f3       	brcs	.-6      	; 0x7a8 <irrProtocolRC5+0x4a>
		TIMER_REG = 0;
     7ae:	16 bc       	out	0x26, r1	; 38

		PORTC ^= _BV(PINC5);
     7b0:	68 b1       	in	r22, 0x08	; 8
     7b2:	80 e2       	ldi	r24, 0x20	; 32
     7b4:	86 27       	eor	r24, r22
     7b6:	88 b9       	out	0x08, r24	; 8
		
		if (IR_VAL)
     7b8:	1a 99       	sbic	0x03, 2	; 3
		code |= 0x0001;
     7ba:	21 60       	ori	r18, 0x01	; 1

		if (IR_VAL && errorBit) // If the previous and current bit is the same - we have error code
     7bc:	1a 9b       	sbis	0x03, 2	; 3
     7be:	02 c0       	rjmp	.+4      	; 0x7c4 <irrProtocolRC5+0x66>
     7c0:	91 11       	cpse	r25, r1
     7c2:	2f c0       	rjmp	.+94     	; 0x822 <__DATA_REGION_LENGTH__+0x22>
		return 0;
		
		while (TIMER_REG < CONV(800));
     7c4:	86 b5       	in	r24, 0x26	; 38
     7c6:	86 30       	cpi	r24, 0x06	; 6
     7c8:	e8 f3       	brcs	.-6      	; 0x7c4 <irrProtocolRC5+0x66>
		TIMER_REG = 0;
     7ca:	16 bc       	out	0x26, r1	; 38

	// Move 1760us to the first data bit
	while (TIMER_REG < CONV(880));
	TIMER_REG = 0;

	for (i = 0; i < 11; i++) // Read 12 data bits (5 address & 7 command)
     7cc:	4f 5f       	subi	r20, 0xFF	; 255
     7ce:	4b 30       	cpi	r20, 0x0B	; 11
     7d0:	c8 f2       	brcs	.-78     	; 0x784 <irrProtocolRC5+0x26>
		
		while (TIMER_REG < CONV(800));
		TIMER_REG = 0;
	}

	if (code == lastCode && repeatBit == lastRepeatBit)
     7d2:	80 91 7f 01 	lds	r24, 0x017F	; 0x80017f <lastCode.2152>
     7d6:	90 91 80 01 	lds	r25, 0x0180	; 0x800180 <lastCode.2152+0x1>
     7da:	28 17       	cp	r18, r24
     7dc:	39 07       	cpc	r19, r25
     7de:	81 f4       	brne	.+32     	; 0x800 <__DATA_REGION_LENGTH__>
     7e0:	80 91 7e 01 	lds	r24, 0x017E	; 0x80017e <lastRepeatBit.2153>
     7e4:	58 13       	cpse	r21, r24
     7e6:	0c c0       	rjmp	.+24     	; 0x800 <__DATA_REGION_LENGTH__>
	{
		if (++repeatCount == RC5_REPEAT_RATE)
     7e8:	80 91 85 01 	lds	r24, 0x0185	; 0x800185 <repeatCount>
     7ec:	8f 5f       	subi	r24, 0xFF	; 255
     7ee:	80 93 85 01 	sts	0x0185, r24	; 0x800185 <repeatCount>
     7f2:	85 30       	cpi	r24, 0x05	; 5
     7f4:	c9 f4       	brne	.+50     	; 0x828 <__DATA_REGION_LENGTH__+0x28>
		{
			repeatCount = 0;
     7f6:	10 92 85 01 	sts	0x0185, r1	; 0x800185 <repeatCount>
			return code;
     7fa:	82 2f       	mov	r24, r18
     7fc:	93 2f       	mov	r25, r19
     7fe:	08 95       	ret
			} else {
			return 0;
		}
	}

	if (repeatBit != lastRepeatBit)
     800:	80 91 7e 01 	lds	r24, 0x017E	; 0x80017e <lastRepeatBit.2153>
     804:	58 13       	cpse	r21, r24
	{
		repeatCount = 0;
     806:	10 92 85 01 	sts	0x0185, r1	; 0x800185 <repeatCount>
	}

	lastCode = code;
     80a:	30 93 80 01 	sts	0x0180, r19	; 0x800180 <lastCode.2152+0x1>
     80e:	20 93 7f 01 	sts	0x017F, r18	; 0x80017f <lastCode.2152>
	lastRepeatBit = repeatBit;
     812:	50 93 7e 01 	sts	0x017E, r21	; 0x80017e <lastRepeatBit.2153>
	return code;
     816:	82 2f       	mov	r24, r18
     818:	93 2f       	mov	r25, r19
     81a:	08 95       	ret
		// Read second half of bit, which has to be inverted
		// so we check whether the code is ok

		while (errorBit == IR_VAL)
		if (TIMER_REG > CONV(1000))
		return 0;
     81c:	80 e0       	ldi	r24, 0x00	; 0
     81e:	90 e0       	ldi	r25, 0x00	; 0
     820:	08 95       	ret
		
		if (IR_VAL)
		code |= 0x0001;

		if (IR_VAL && errorBit) // If the previous and current bit is the same - we have error code
		return 0;
     822:	80 e0       	ldi	r24, 0x00	; 0
     824:	90 e0       	ldi	r25, 0x00	; 0
     826:	08 95       	ret
		if (++repeatCount == RC5_REPEAT_RATE)
		{
			repeatCount = 0;
			return code;
			} else {
			return 0;
     828:	80 e0       	ldi	r24, 0x00	; 0
     82a:	90 e0       	ldi	r25, 0x00	; 0
	}

	lastCode = code;
	lastRepeatBit = repeatBit;
	return code;
}
     82c:	08 95       	ret

0000082e <irrProtocolSIRC>:
	unsigned char i;
	static unsigned int lastCode = 0;

	code = 0;

	for (i = 0; i < 12; i++) // Read 32 data bits
     82e:	90 e0       	ldi	r25, 0x00	; 0
{
	unsigned int time;
	unsigned char i;
	static unsigned int lastCode = 0;

	code = 0;
     830:	20 e0       	ldi	r18, 0x00	; 0
     832:	30 e0       	ldi	r19, 0x00	; 0

	for (i = 0; i < 12; i++) // Read 32 data bits
     834:	1b c0       	rjmp	.+54     	; 0x86c <irrProtocolSIRC+0x3e>
	{
		while (IR_LOW)
		if (TIMER_REG > CONV(2000))
     836:	86 b5       	in	r24, 0x26	; 38
     838:	80 31       	cpi	r24, 0x10	; 16
     83a:	a8 f5       	brcc	.+106    	; 0x8a6 <irrProtocolSIRC+0x78>

	code = 0;

	for (i = 0; i < 12; i++) // Read 32 data bits
	{
		while (IR_LOW)
     83c:	1a 9b       	sbis	0x03, 2	; 3
     83e:	fb cf       	rjmp	.-10     	; 0x836 <irrProtocolSIRC+0x8>
     840:	03 c0       	rjmp	.+6      	; 0x848 <irrProtocolSIRC+0x1a>
		if (TIMER_REG > CONV(2000))
		return 0;
		while (IR_HIGH)
		if (TIMER_REG > CONV(2000))
     842:	86 b5       	in	r24, 0x26	; 38
     844:	80 31       	cpi	r24, 0x10	; 16
     846:	90 f5       	brcc	.+100    	; 0x8ac <irrProtocolSIRC+0x7e>
	for (i = 0; i < 12; i++) // Read 32 data bits
	{
		while (IR_LOW)
		if (TIMER_REG > CONV(2000))
		return 0;
		while (IR_HIGH)
     848:	1a 99       	sbic	0x03, 2	; 3
     84a:	fb cf       	rjmp	.-10     	; 0x842 <irrProtocolSIRC+0x14>
		if (TIMER_REG > CONV(2000))
		return 0;

		time = TIMER_REG;
     84c:	46 b5       	in	r20, 0x26	; 38
     84e:	50 e0       	ldi	r21, 0x00	; 0
		TIMER_REG = 0;
     850:	16 bc       	out	0x26, r1	; 38

		if (time < CONV(400) || time > CONV(2000)) // error check - pulse length between 500-2000us
     852:	ba 01       	movw	r22, r20
     854:	63 50       	subi	r22, 0x03	; 3
     856:	71 09       	sbc	r23, r1
     858:	6d 30       	cpi	r22, 0x0D	; 13
     85a:	71 05       	cpc	r23, r1
     85c:	50 f5       	brcc	.+84     	; 0x8b2 <irrProtocolSIRC+0x84>
		return 0;

		code = code << 1;
     85e:	22 0f       	add	r18, r18
     860:	33 1f       	adc	r19, r19

		if (time > CONV(1440)) // 1440 us
     862:	4c 30       	cpi	r20, 0x0C	; 12
     864:	51 05       	cpc	r21, r1
     866:	08 f0       	brcs	.+2      	; 0x86a <irrProtocolSIRC+0x3c>
		code |= 1;
     868:	21 60       	ori	r18, 0x01	; 1
	unsigned char i;
	static unsigned int lastCode = 0;

	code = 0;

	for (i = 0; i < 12; i++) // Read 32 data bits
     86a:	9f 5f       	subi	r25, 0xFF	; 255
     86c:	9c 30       	cpi	r25, 0x0C	; 12
     86e:	30 f3       	brcs	.-52     	; 0x83c <irrProtocolSIRC+0xe>

		if (time > CONV(1440)) // 1440 us
		code |= 1;
	}
	
	if (code == lastCode)
     870:	80 91 7c 01 	lds	r24, 0x017C	; 0x80017c <__data_end>
     874:	90 91 7d 01 	lds	r25, 0x017D	; 0x80017d <__data_end+0x1>
     878:	28 17       	cp	r18, r24
     87a:	39 07       	cpc	r19, r25
     87c:	69 f4       	brne	.+26     	; 0x898 <irrProtocolSIRC+0x6a>
	{
		if ((repeatCount++) == SIRC_REPEAT_RATE)
     87e:	80 91 85 01 	lds	r24, 0x0185	; 0x800185 <repeatCount>
     882:	91 e0       	ldi	r25, 0x01	; 1
     884:	98 0f       	add	r25, r24
     886:	90 93 85 01 	sts	0x0185, r25	; 0x800185 <repeatCount>
     88a:	85 30       	cpi	r24, 0x05	; 5
     88c:	a9 f4       	brne	.+42     	; 0x8b8 <irrProtocolSIRC+0x8a>
		{
			repeatCount = 0;
     88e:	10 92 85 01 	sts	0x0185, r1	; 0x800185 <repeatCount>
			return code;
     892:	82 2f       	mov	r24, r18
     894:	93 2f       	mov	r25, r19
     896:	08 95       	ret
			} else {
			return 0;
		}
	}
	lastCode = code;
     898:	30 93 7d 01 	sts	0x017D, r19	; 0x80017d <__data_end+0x1>
     89c:	20 93 7c 01 	sts	0x017C, r18	; 0x80017c <__data_end>
	return code;
     8a0:	82 2f       	mov	r24, r18
     8a2:	93 2f       	mov	r25, r19
     8a4:	08 95       	ret

	for (i = 0; i < 12; i++) // Read 32 data bits
	{
		while (IR_LOW)
		if (TIMER_REG > CONV(2000))
		return 0;
     8a6:	80 e0       	ldi	r24, 0x00	; 0
     8a8:	90 e0       	ldi	r25, 0x00	; 0
     8aa:	08 95       	ret
		while (IR_HIGH)
		if (TIMER_REG > CONV(2000))
		return 0;
     8ac:	80 e0       	ldi	r24, 0x00	; 0
     8ae:	90 e0       	ldi	r25, 0x00	; 0
     8b0:	08 95       	ret

		time = TIMER_REG;
		TIMER_REG = 0;

		if (time < CONV(400) || time > CONV(2000)) // error check - pulse length between 500-2000us
		return 0;
     8b2:	80 e0       	ldi	r24, 0x00	; 0
     8b4:	90 e0       	ldi	r25, 0x00	; 0
     8b6:	08 95       	ret
		if ((repeatCount++) == SIRC_REPEAT_RATE)
		{
			repeatCount = 0;
			return code;
			} else {
			return 0;
     8b8:	80 e0       	ldi	r24, 0x00	; 0
     8ba:	90 e0       	ldi	r25, 0x00	; 0
		}
	}
	lastCode = code;
	return code;
}
     8bc:	08 95       	ret

000008be <irrDecode>:
	IR_PORT |= _BV(IR_PIN_NUM);
}

unsigned int irrDecode()
{
	time = TIMER_REG;
     8be:	86 b5       	in	r24, 0x26	; 38
     8c0:	90 e0       	ldi	r25, 0x00	; 0
     8c2:	90 93 8e 01 	sts	0x018E, r25	; 0x80018e <time+0x1>
     8c6:	80 93 8d 01 	sts	0x018D, r24	; 0x80018d <time>
	TIMER_REG = 0;
     8ca:	16 bc       	out	0x26, r1	; 38

	if (time > CONV(9000) && time < CONV(9800)) { // Between 9ms and 9.8ms => NEC protocol
     8cc:	80 91 8d 01 	lds	r24, 0x018D	; 0x80018d <time>
     8d0:	90 91 8e 01 	lds	r25, 0x018E	; 0x80018e <time+0x1>
     8d4:	9c 01       	movw	r18, r24
     8d6:	27 54       	subi	r18, 0x47	; 71
     8d8:	31 09       	sbc	r19, r1
     8da:	25 30       	cpi	r18, 0x05	; 5
     8dc:	31 05       	cpc	r19, r1
     8de:	70 f4       	brcc	.+28     	; 0x8fc <irrDecode+0x3e>
		protocolLetter = 'N';
     8e0:	8e e4       	ldi	r24, 0x4E	; 78
     8e2:	80 93 8c 01 	sts	0x018C, r24	; 0x80018c <protocolLetter>
		code = irrProtocolNEC(code);
     8e6:	80 91 83 01 	lds	r24, 0x0183	; 0x800183 <code>
     8ea:	90 91 84 01 	lds	r25, 0x0184	; 0x800184 <code+0x1>
     8ee:	0e 94 57 03 	call	0x6ae	; 0x6ae <irrProtocolNEC>
     8f2:	90 93 84 01 	sts	0x0184, r25	; 0x800184 <code+0x1>
     8f6:	80 93 83 01 	sts	0x0183, r24	; 0x800183 <code>
     8fa:	28 c0       	rjmp	.+80     	; 0x94c <__stack+0x4d>

		} else if (time > CONV(800) && time < CONV(1200)) { // Between 0.8ms and 1.2ms => RC5 protocol
     8fc:	9c 01       	movw	r18, r24
     8fe:	27 50       	subi	r18, 0x07	; 7
     900:	31 09       	sbc	r19, r1
     902:	22 30       	cpi	r18, 0x02	; 2
     904:	31 05       	cpc	r19, r1
     906:	70 f4       	brcc	.+28     	; 0x924 <__stack+0x25>
		protocolLetter = 'R';
     908:	82 e5       	ldi	r24, 0x52	; 82
     90a:	80 93 8c 01 	sts	0x018C, r24	; 0x80018c <protocolLetter>
		code = irrProtocolRC5(code);
     90e:	80 91 83 01 	lds	r24, 0x0183	; 0x800183 <code>
     912:	90 91 84 01 	lds	r25, 0x0184	; 0x800184 <code+0x1>
     916:	0e 94 af 03 	call	0x75e	; 0x75e <irrProtocolRC5>
     91a:	90 93 84 01 	sts	0x0184, r25	; 0x800184 <code+0x1>
     91e:	80 93 83 01 	sts	0x0183, r24	; 0x800183 <code>
     922:	14 c0       	rjmp	.+40     	; 0x94c <__stack+0x4d>

		} else if (time > CONV(2000) && time < CONV(2800)) { // Between 2ms and 2.8ms => SIRC protocol
     924:	40 97       	sbiw	r24, 0x10	; 16
     926:	05 97       	sbiw	r24, 0x05	; 5
     928:	70 f4       	brcc	.+28     	; 0x946 <__stack+0x47>
		protocolLetter = 'S';
     92a:	83 e5       	ldi	r24, 0x53	; 83
     92c:	80 93 8c 01 	sts	0x018C, r24	; 0x80018c <protocolLetter>
		code = irrProtocolSIRC(code);
     930:	80 91 83 01 	lds	r24, 0x0183	; 0x800183 <code>
     934:	90 91 84 01 	lds	r25, 0x0184	; 0x800184 <code+0x1>
     938:	0e 94 17 04 	call	0x82e	; 0x82e <irrProtocolSIRC>
     93c:	90 93 84 01 	sts	0x0184, r25	; 0x800184 <code+0x1>
     940:	80 93 83 01 	sts	0x0183, r24	; 0x800183 <code>
     944:	03 c0       	rjmp	.+6      	; 0x94c <__stack+0x4d>
		} else {
		protocolLetter = 'U';
     946:	85 e5       	ldi	r24, 0x55	; 85
     948:	80 93 8c 01 	sts	0x018C, r24	; 0x80018c <protocolLetter>
	}
	unsigned int decoded = code;
     94c:	80 91 83 01 	lds	r24, 0x0183	; 0x800183 <code>
     950:	90 91 84 01 	lds	r25, 0x0184	; 0x800184 <code+0x1>
	code = 0;
     954:	10 92 84 01 	sts	0x0184, r1	; 0x800184 <code+0x1>
     958:	10 92 83 01 	sts	0x0183, r1	; 0x800183 <code>
	return (decoded);
}
     95c:	08 95       	ret

0000095e <main>:
//return 0;
//}


int main(void)
{
     95e:	cf 93       	push	r28
     960:	df 93       	push	r29
     962:	cd b7       	in	r28, 0x3d	; 61
     964:	de b7       	in	r29, 0x3e	; 62
     966:	2b 97       	sbiw	r28, 0x0b	; 11
     968:	0f b6       	in	r0, 0x3f	; 63
     96a:	f8 94       	cli
     96c:	de bf       	out	0x3e, r29	; 62
     96e:	0f be       	out	0x3f, r0	; 63
     970:	cd bf       	out	0x3d, r28	; 61
	DDRD = 0xFF; PORTD = 0x00;
     972:	8f ef       	ldi	r24, 0xFF	; 255
     974:	8a b9       	out	0x0a, r24	; 10
     976:	1b b8       	out	0x0b, r1	; 11
	irrTimerInit();
     978:	0e 94 51 03 	call	0x6a2	; 0x6a2 <irrTimerInit>
	uartInit();
     97c:	0e 94 14 06 	call	0xc28	; 0xc28 <uartInit>
	LCD_Init();
     980:	0e 94 53 01 	call	0x2a6	; 0x2a6 <LCD_Init>
	LCD_DisplEnable_CursOnOffBlink(1, 0, 0);
     984:	40 e0       	ldi	r20, 0x00	; 0
     986:	60 e0       	ldi	r22, 0x00	; 0
     988:	81 e0       	ldi	r24, 0x01	; 1
     98a:	0e 94 07 01 	call	0x20e	; 0x20e <LCD_DisplEnable_CursOnOffBlink>
	LCD_String("                ", 0, 0);
     98e:	40 e0       	ldi	r20, 0x00	; 0
     990:	60 e0       	ldi	r22, 0x00	; 0
     992:	8c e4       	ldi	r24, 0x4C	; 76
     994:	91 e0       	ldi	r25, 0x01	; 1
     996:	0e 94 c2 01 	call	0x384	; 0x384 <LCD_String>
	LCD_String("                ", 1, 0);
     99a:	40 e0       	ldi	r20, 0x00	; 0
     99c:	61 e0       	ldi	r22, 0x01	; 1
     99e:	8c e4       	ldi	r24, 0x4C	; 76
     9a0:	91 e0       	ldi	r25, 0x01	; 1
     9a2:	0e 94 c2 01 	call	0x384	; 0x384 <LCD_String>
	
	drawBigDigits(0, 0);
     9a6:	60 e0       	ldi	r22, 0x00	; 0
     9a8:	80 e0       	ldi	r24, 0x00	; 0
     9aa:	0e 94 de 01 	call	0x3bc	; 0x3bc <drawBigDigits>
	drawBigDigits(1, 4);
     9ae:	64 e0       	ldi	r22, 0x04	; 4
     9b0:	81 e0       	ldi	r24, 0x01	; 1
     9b2:	0e 94 de 01 	call	0x3bc	; 0x3bc <drawBigDigits>
	drawBigDigits(2, 9);
     9b6:	69 e0       	ldi	r22, 0x09	; 9
     9b8:	82 e0       	ldi	r24, 0x02	; 2
     9ba:	0e 94 de 01 	call	0x3bc	; 0x3bc <drawBigDigits>
	drawBigDigits(3, 13);
     9be:	6d e0       	ldi	r22, 0x0D	; 13
     9c0:	83 e0       	ldi	r24, 0x03	; 3
     9c2:	0e 94 de 01 	call	0x3bc	; 0x3bc <drawBigDigits>
	
	LCD_String("+ ", 0, 7);
     9c6:	47 e0       	ldi	r20, 0x07	; 7
     9c8:	60 e0       	ldi	r22, 0x00	; 0
     9ca:	8d e5       	ldi	r24, 0x5D	; 93
     9cc:	91 e0       	ldi	r25, 0x01	; 1
     9ce:	0e 94 c2 01 	call	0x384	; 0x384 <LCD_String>
	LCD_String(" +", 1, 7);
     9d2:	47 e0       	ldi	r20, 0x07	; 7
     9d4:	61 e0       	ldi	r22, 0x01	; 1
     9d6:	80 e6       	ldi	r24, 0x60	; 96
     9d8:	91 e0       	ldi	r25, 0x01	; 1
     9da:	0e 94 c2 01 	call	0x384	; 0x384 <LCD_String>
	LCD_String("+", 1, 3);
     9de:	43 e0       	ldi	r20, 0x03	; 3
     9e0:	61 e0       	ldi	r22, 0x01	; 1
     9e2:	81 e6       	ldi	r24, 0x61	; 97
     9e4:	91 e0       	ldi	r25, 0x01	; 1
     9e6:	0e 94 c2 01 	call	0x384	; 0x384 <LCD_String>
	LCD_String("+", 0, 12);
     9ea:	4c e0       	ldi	r20, 0x0C	; 12
     9ec:	60 e0       	ldi	r22, 0x00	; 0
     9ee:	81 e6       	ldi	r24, 0x61	; 97
     9f0:	91 e0       	ldi	r25, 0x01	; 1
     9f2:	0e 94 c2 01 	call	0x384	; 0x384 <LCD_String>
	LCD_String(" ", 0, 3);
     9f6:	43 e0       	ldi	r20, 0x03	; 3
     9f8:	60 e0       	ldi	r22, 0x00	; 0
     9fa:	8b e5       	ldi	r24, 0x5B	; 91
     9fc:	91 e0       	ldi	r25, 0x01	; 1
     9fe:	0e 94 c2 01 	call	0x384	; 0x384 <LCD_String>
	LCD_String(" ", 1, 12);
     a02:	4c e0       	ldi	r20, 0x0C	; 12
     a04:	61 e0       	ldi	r22, 0x01	; 1
     a06:	8b e5       	ldi	r24, 0x5B	; 91
     a08:	91 e0       	ldi	r25, 0x01	; 1
     a0a:	0e 94 c2 01 	call	0x384	; 0x384 <LCD_String>
     a0e:	2f ef       	ldi	r18, 0xFF	; 255
     a10:	89 e6       	ldi	r24, 0x69	; 105
     a12:	98 e1       	ldi	r25, 0x18	; 24
     a14:	21 50       	subi	r18, 0x01	; 1
     a16:	80 40       	sbci	r24, 0x00	; 0
     a18:	90 40       	sbci	r25, 0x00	; 0
     a1a:	e1 f7       	brne	.-8      	; 0xa14 <main+0xb6>
     a1c:	00 c0       	rjmp	.+0      	; 0xa1e <main+0xc0>
     a1e:	00 00       	nop
	
	_delay_ms(1000);
	
	LCD_String(" +", 0, 7);
     a20:	47 e0       	ldi	r20, 0x07	; 7
     a22:	60 e0       	ldi	r22, 0x00	; 0
     a24:	80 e6       	ldi	r24, 0x60	; 96
     a26:	91 e0       	ldi	r25, 0x01	; 1
     a28:	0e 94 c2 01 	call	0x384	; 0x384 <LCD_String>
	LCD_String("+ ", 1, 7);
     a2c:	47 e0       	ldi	r20, 0x07	; 7
     a2e:	61 e0       	ldi	r22, 0x01	; 1
     a30:	8d e5       	ldi	r24, 0x5D	; 93
     a32:	91 e0       	ldi	r25, 0x01	; 1
     a34:	0e 94 c2 01 	call	0x384	; 0x384 <LCD_String>
	LCD_String("+", 1, 3);
     a38:	43 e0       	ldi	r20, 0x03	; 3
     a3a:	61 e0       	ldi	r22, 0x01	; 1
     a3c:	81 e6       	ldi	r24, 0x61	; 97
     a3e:	91 e0       	ldi	r25, 0x01	; 1
     a40:	0e 94 c2 01 	call	0x384	; 0x384 <LCD_String>
	LCD_String("+", 0, 12);
     a44:	4c e0       	ldi	r20, 0x0C	; 12
     a46:	60 e0       	ldi	r22, 0x00	; 0
     a48:	81 e6       	ldi	r24, 0x61	; 97
     a4a:	91 e0       	ldi	r25, 0x01	; 1
     a4c:	0e 94 c2 01 	call	0x384	; 0x384 <LCD_String>
	LCD_String(" ", 0, 3);
     a50:	43 e0       	ldi	r20, 0x03	; 3
     a52:	60 e0       	ldi	r22, 0x00	; 0
     a54:	8b e5       	ldi	r24, 0x5B	; 91
     a56:	91 e0       	ldi	r25, 0x01	; 1
     a58:	0e 94 c2 01 	call	0x384	; 0x384 <LCD_String>
	LCD_String(" ", 1, 12);
     a5c:	4c e0       	ldi	r20, 0x0C	; 12
     a5e:	61 e0       	ldi	r22, 0x01	; 1
     a60:	8b e5       	ldi	r24, 0x5B	; 91
     a62:	91 e0       	ldi	r25, 0x01	; 1
     a64:	0e 94 c2 01 	call	0x384	; 0x384 <LCD_String>
     a68:	2f ef       	ldi	r18, 0xFF	; 255
     a6a:	89 e6       	ldi	r24, 0x69	; 105
     a6c:	98 e1       	ldi	r25, 0x18	; 24
     a6e:	21 50       	subi	r18, 0x01	; 1
     a70:	80 40       	sbci	r24, 0x00	; 0
     a72:	90 40       	sbci	r25, 0x00	; 0
     a74:	e1 f7       	brne	.-8      	; 0xa6e <main+0x110>
     a76:	00 c0       	rjmp	.+0      	; 0xa78 <main+0x11a>
     a78:	00 00       	nop
	
	_delay_ms(1000);

	savedCode = eeprom_read_word(&eeSavedCode);
     a7a:	80 e0       	ldi	r24, 0x00	; 0
     a7c:	90 e0       	ldi	r25, 0x00	; 0
     a7e:	0e 94 ed 08 	call	0x11da	; 0x11da <eeprom_read_word>
     a82:	90 93 90 01 	sts	0x0190, r25	; 0x800190 <savedCode+0x1>
     a86:	80 93 8f 01 	sts	0x018F, r24	; 0x80018f <savedCode>
	
	while (1) {
		
		if (IR_HIGH)
     a8a:	1a 9b       	sbis	0x03, 2	; 3
     a8c:	fe cf       	rjmp	.-4      	; 0xa8a <main+0x12c>
		{
			
			unsigned int irrValueNow = irrDecode();
     a8e:	0e 94 5f 04 	call	0x8be	; 0x8be <irrDecode>
     a92:	8c 01       	movw	r16, r24
			
			if ((irrValueNow) && (irrValue != irrValueNow || irrDelayCount != secUpTime))
     a94:	89 2b       	or	r24, r25
     a96:	c9 f3       	breq	.-14     	; 0xa8a <main+0x12c>
     a98:	80 91 8a 01 	lds	r24, 0x018A	; 0x80018a <irrValue>
     a9c:	90 91 8b 01 	lds	r25, 0x018B	; 0x80018b <irrValue+0x1>
     aa0:	08 17       	cp	r16, r24
     aa2:	19 07       	cpc	r17, r25
     aa4:	59 f4       	brne	.+22     	; 0xabc <main+0x15e>
     aa6:	20 91 86 01 	lds	r18, 0x0186	; 0x800186 <irrDelayCount>
     aaa:	30 91 87 01 	lds	r19, 0x0187	; 0x800187 <irrDelayCount+0x1>
     aae:	80 91 88 01 	lds	r24, 0x0188	; 0x800188 <secUpTime>
     ab2:	90 91 89 01 	lds	r25, 0x0189	; 0x800189 <secUpTime+0x1>
     ab6:	28 17       	cp	r18, r24
     ab8:	39 07       	cpc	r19, r25
     aba:	39 f3       	breq	.-50     	; 0xa8a <main+0x12c>
			{
				irrDelayCount = secUpTime;
     abc:	80 91 88 01 	lds	r24, 0x0188	; 0x800188 <secUpTime>
     ac0:	90 91 89 01 	lds	r25, 0x0189	; 0x800189 <secUpTime+0x1>
     ac4:	90 93 87 01 	sts	0x0187, r25	; 0x800187 <irrDelayCount+0x1>
     ac8:	80 93 86 01 	sts	0x0186, r24	; 0x800186 <irrDelayCount>
				uartTransmitHex(0, irrValueNow);
     acc:	a8 01       	movw	r20, r16
     ace:	60 e0       	ldi	r22, 0x00	; 0
     ad0:	70 e0       	ldi	r23, 0x00	; 0
     ad2:	80 e0       	ldi	r24, 0x00	; 0
     ad4:	0e 94 ad 05 	call	0xb5a	; 0xb5a <uartTransmitHex>
				uartNewLine();
     ad8:	0e 94 0d 06 	call	0xc1a	; 0xc1a <uartNewLine>
				
				LCD_String("                ", 0, 0);
     adc:	40 e0       	ldi	r20, 0x00	; 0
     ade:	60 e0       	ldi	r22, 0x00	; 0
     ae0:	8c e4       	ldi	r24, 0x4C	; 76
     ae2:	91 e0       	ldi	r25, 0x01	; 1
     ae4:	0e 94 c2 01 	call	0x384	; 0x384 <LCD_String>
				LCD_String("                ", 1, 0);
     ae8:	40 e0       	ldi	r20, 0x00	; 0
     aea:	61 e0       	ldi	r22, 0x01	; 1
     aec:	8c e4       	ldi	r24, 0x4C	; 76
     aee:	91 e0       	ldi	r25, 0x01	; 1
     af0:	0e 94 c2 01 	call	0x384	; 0x384 <LCD_String>
				
				//LCD_String(snprintf(irrValueNow), 0, 0);
				
				char code_string[11];
				snprintf(code_string, 11, "CODE: 0x%02X ", irrValueNow);
     af4:	1f 93       	push	r17
     af6:	0f 93       	push	r16
     af8:	83 e6       	ldi	r24, 0x63	; 99
     afa:	91 e0       	ldi	r25, 0x01	; 1
     afc:	9f 93       	push	r25
     afe:	8f 93       	push	r24
     b00:	1f 92       	push	r1
     b02:	8b e0       	ldi	r24, 0x0B	; 11
     b04:	8f 93       	push	r24
     b06:	ce 01       	movw	r24, r28
     b08:	01 96       	adiw	r24, 0x01	; 1
     b0a:	7c 01       	movw	r14, r24
     b0c:	9f 93       	push	r25
     b0e:	8f 93       	push	r24
     b10:	0e 94 2c 06 	call	0xc58	; 0xc58 <snprintf>
				LCD_String(code_string, 0, 0);
     b14:	40 e0       	ldi	r20, 0x00	; 0
     b16:	60 e0       	ldi	r22, 0x00	; 0
     b18:	c7 01       	movw	r24, r14
     b1a:	0e 94 c2 01 	call	0x384	; 0x384 <LCD_String>
				
				if (irrValueNow == savedCode)
				{
					//clear
				}
				irrValue = irrValueNow;
     b1e:	10 93 8b 01 	sts	0x018B, r17	; 0x80018b <irrValue+0x1>
     b22:	00 93 8a 01 	sts	0x018A, r16	; 0x80018a <irrValue>
     b26:	0f b6       	in	r0, 0x3f	; 63
     b28:	f8 94       	cli
     b2a:	de bf       	out	0x3e, r29	; 62
     b2c:	0f be       	out	0x3f, r0	; 63
     b2e:	cd bf       	out	0x3d, r28	; 61
     b30:	ac cf       	rjmp	.-168    	; 0xa8a <main+0x12c>

00000b32 <uartTransmitByte>:
	return(data);
}

void uartTransmitByte(unsigned char data)
{ //	Function to transmit a single byte
	while (!(UCSR0A & (1<<UDRE0)));   /* Wait for empty transmit buffer */
     b32:	90 91 c0 00 	lds	r25, 0x00C0	; 0x8000c0 <__TEXT_REGION_LENGTH__+0x7f80c0>
     b36:	95 ff       	sbrs	r25, 5
     b38:	fc cf       	rjmp	.-8      	; 0xb32 <uartTransmitByte>
	UDR0 = data; 			        /* Start transmition */
     b3a:	80 93 c6 00 	sts	0x00C6, r24	; 0x8000c6 <__TEXT_REGION_LENGTH__+0x7f80c6>
     b3e:	08 95       	ret

00000b40 <uartTransmitString>:

	uartTransmitString (dataString);
}

void uartTransmitString(unsigned char* string)
{ // Function to transmit a string in RAM
     b40:	cf 93       	push	r28
     b42:	df 93       	push	r29
     b44:	ec 01       	movw	r28, r24
	while (*string)
     b46:	03 c0       	rjmp	.+6      	; 0xb4e <uartTransmitString+0xe>
	uartTransmitByte(*string++);
     b48:	21 96       	adiw	r28, 0x01	; 1
     b4a:	0e 94 99 05 	call	0xb32	; 0xb32 <uartTransmitByte>
	uartTransmitString (dataString);
}

void uartTransmitString(unsigned char* string)
{ // Function to transmit a string in RAM
	while (*string)
     b4e:	88 81       	ld	r24, Y
     b50:	81 11       	cpse	r24, r1
     b52:	fa cf       	rjmp	.-12     	; 0xb48 <uartTransmitString+0x8>
	uartTransmitByte(*string++);
}
     b54:	df 91       	pop	r29
     b56:	cf 91       	pop	r28
     b58:	08 95       	ret

00000b5a <uartTransmitHex>:
	while (!(UCSR0A & (1<<UDRE0)));   /* Wait for empty transmit buffer */
	UDR0 = data; 			        /* Start transmition */
}

void uartTransmitHex(unsigned char dataType, unsigned long data)
{ // Function to transmit hex format data. first argument indicates type: CHAR, INT or LONG. Second argument is the data to be displayed
     b5a:	cf 93       	push	r28
     b5c:	df 93       	push	r29
     b5e:	cd b7       	in	r28, 0x3d	; 61
     b60:	de b7       	in	r29, 0x3e	; 62
     b62:	2b 97       	sbiw	r28, 0x0b	; 11
     b64:	0f b6       	in	r0, 0x3f	; 63
     b66:	f8 94       	cli
     b68:	de bf       	out	0x3e, r29	; 62
     b6a:	0f be       	out	0x3f, r0	; 63
     b6c:	cd bf       	out	0x3d, r28	; 61
	unsigned char count, i, temp;
	unsigned char dataString[] = "0x        ";
     b6e:	9b e0       	ldi	r25, 0x0B	; 11
     b70:	e1 e7       	ldi	r30, 0x71	; 113
     b72:	f1 e0       	ldi	r31, 0x01	; 1
     b74:	de 01       	movw	r26, r28
     b76:	11 96       	adiw	r26, 0x01	; 1
     b78:	01 90       	ld	r0, Z+
     b7a:	0d 92       	st	X+, r0
     b7c:	9a 95       	dec	r25
     b7e:	e1 f7       	brne	.-8      	; 0xb78 <uartTransmitHex+0x1e>

	if (dataType == CHAR) count = 2;
	if (dataType == INT) count = 4;
     b80:	81 30       	cpi	r24, 0x01	; 1
     b82:	11 f0       	breq	.+4      	; 0xb88 <uartTransmitHex+0x2e>
     b84:	92 e0       	ldi	r25, 0x02	; 2
     b86:	01 c0       	rjmp	.+2      	; 0xb8a <uartTransmitHex+0x30>
     b88:	94 e0       	ldi	r25, 0x04	; 4
	if (dataType == LONG) count = 8;
     b8a:	82 30       	cpi	r24, 0x02	; 2
     b8c:	31 f5       	brne	.+76     	; 0xbda <uartTransmitHex+0x80>
     b8e:	98 e0       	ldi	r25, 0x08	; 8
     b90:	24 c0       	rjmp	.+72     	; 0xbda <uartTransmitHex+0x80>

	for(i=count; i>0; i--)
	{
		temp = data % 16;
     b92:	84 2f       	mov	r24, r20
     b94:	8f 70       	andi	r24, 0x0F	; 15
		if((temp>=0) && (temp<10)) dataString [i+1] = temp + 0x30;
     b96:	8a 30       	cpi	r24, 0x0A	; 10
     b98:	60 f4       	brcc	.+24     	; 0xbb2 <uartTransmitHex+0x58>
     b9a:	e9 2f       	mov	r30, r25
     b9c:	f0 e0       	ldi	r31, 0x00	; 0
     b9e:	31 96       	adiw	r30, 0x01	; 1
     ba0:	21 e0       	ldi	r18, 0x01	; 1
     ba2:	30 e0       	ldi	r19, 0x00	; 0
     ba4:	2c 0f       	add	r18, r28
     ba6:	3d 1f       	adc	r19, r29
     ba8:	e2 0f       	add	r30, r18
     baa:	f3 1f       	adc	r31, r19
     bac:	80 5d       	subi	r24, 0xD0	; 208
     bae:	80 83       	st	Z, r24
     bb0:	0b c0       	rjmp	.+22     	; 0xbc8 <uartTransmitHex+0x6e>
		else dataString [i+1] = (temp - 10) + 0x41;
     bb2:	e9 2f       	mov	r30, r25
     bb4:	f0 e0       	ldi	r31, 0x00	; 0
     bb6:	31 96       	adiw	r30, 0x01	; 1
     bb8:	21 e0       	ldi	r18, 0x01	; 1
     bba:	30 e0       	ldi	r19, 0x00	; 0
     bbc:	2c 0f       	add	r18, r28
     bbe:	3d 1f       	adc	r19, r29
     bc0:	e2 0f       	add	r30, r18
     bc2:	f3 1f       	adc	r31, r19
     bc4:	89 5c       	subi	r24, 0xC9	; 201
     bc6:	80 83       	st	Z, r24

		data = data/16;
     bc8:	68 94       	set
     bca:	13 f8       	bld	r1, 3
     bcc:	76 95       	lsr	r23
     bce:	67 95       	ror	r22
     bd0:	57 95       	ror	r21
     bd2:	47 95       	ror	r20
     bd4:	16 94       	lsr	r1
     bd6:	d1 f7       	brne	.-12     	; 0xbcc <uartTransmitHex+0x72>

	if (dataType == CHAR) count = 2;
	if (dataType == INT) count = 4;
	if (dataType == LONG) count = 8;

	for(i=count; i>0; i--)
     bd8:	91 50       	subi	r25, 0x01	; 1
     bda:	91 11       	cpse	r25, r1
     bdc:	da cf       	rjmp	.-76     	; 0xb92 <uartTransmitHex+0x38>
		else dataString [i+1] = (temp - 10) + 0x41;

		data = data/16;
	}

	uartTransmitString (dataString);
     bde:	ce 01       	movw	r24, r28
     be0:	01 96       	adiw	r24, 0x01	; 1
     be2:	0e 94 a0 05 	call	0xb40	; 0xb40 <uartTransmitString>
}
     be6:	2b 96       	adiw	r28, 0x0b	; 11
     be8:	0f b6       	in	r0, 0x3f	; 63
     bea:	f8 94       	cli
     bec:	de bf       	out	0x3e, r29	; 62
     bee:	0f be       	out	0x3f, r0	; 63
     bf0:	cd bf       	out	0x3d, r28	; 61
     bf2:	df 91       	pop	r29
     bf4:	cf 91       	pop	r28
     bf6:	08 95       	ret

00000bf8 <uartTransmitString_F>:
	while (*string)
	uartTransmitByte(*string++);
}

void uartTransmitString_F(char* string)
{ // Function to transmit a string in Flash
     bf8:	cf 93       	push	r28
     bfa:	df 93       	push	r29
     bfc:	ec 01       	movw	r28, r24
	while (pgm_read_byte(&(*string)))
     bfe:	05 c0       	rjmp	.+10     	; 0xc0a <uartTransmitString_F+0x12>
	uartTransmitByte(pgm_read_byte(&(*string++)));
     c00:	21 96       	adiw	r28, 0x01	; 1
     c02:	fc 01       	movw	r30, r24
     c04:	84 91       	lpm	r24, Z
     c06:	0e 94 99 05 	call	0xb32	; 0xb32 <uartTransmitByte>
	uartTransmitByte(*string++);
}

void uartTransmitString_F(char* string)
{ // Function to transmit a string in Flash
	while (pgm_read_byte(&(*string)))
     c0a:	ce 01       	movw	r24, r28
     c0c:	fe 01       	movw	r30, r28
     c0e:	24 91       	lpm	r18, Z
     c10:	21 11       	cpse	r18, r1
     c12:	f6 cf       	rjmp	.-20     	; 0xc00 <uartTransmitString_F+0x8>
	uartTransmitByte(pgm_read_byte(&(*string++)));
}
     c14:	df 91       	pop	r29
     c16:	cf 91       	pop	r28
     c18:	08 95       	ret

00000c1a <uartNewLine>:

void uartNewLine()
{
	TX_NEWLINE;
     c1a:	8d e0       	ldi	r24, 0x0D	; 13
     c1c:	0e 94 99 05 	call	0xb32	; 0xb32 <uartTransmitByte>
     c20:	8a e0       	ldi	r24, 0x0A	; 10
     c22:	0e 94 99 05 	call	0xb32	; 0xb32 <uartTransmitByte>
     c26:	08 95       	ret

00000c28 <uartInit>:


void uartInit()
{
	unsigned int ubrr = ((F_CPU/16)/(UART_BAUD+1));
	UBRR0H = (unsigned char)(ubrr>>8);
     c28:	10 92 c5 00 	sts	0x00C5, r1	; 0x8000c5 <__TEXT_REGION_LENGTH__+0x7f80c5>
	UBRR0L = (unsigned char)ubrr;
     c2c:	84 e3       	ldi	r24, 0x34	; 52
     c2e:	80 93 c4 00 	sts	0x00C4, r24	; 0x8000c4 <__TEXT_REGION_LENGTH__+0x7f80c4>
	UCSR0B=(1<<RXEN0)|(1<<TXEN0)|(1<<RXCIE0);
     c32:	88 e9       	ldi	r24, 0x98	; 152
     c34:	80 93 c1 00 	sts	0x00C1, r24	; 0x8000c1 <__TEXT_REGION_LENGTH__+0x7f80c1>
	UCSR0C=(1<<UMSEL01)|(1<<UCSZ00)|(1<<UCSZ01)|(1<<USBS0);
     c38:	8e e8       	ldi	r24, 0x8E	; 142
     c3a:	80 93 c2 00 	sts	0x00C2, r24	; 0x8000c2 <__TEXT_REGION_LENGTH__+0x7f80c2>
	uartTransmitString_F (PSTR("OK"));
     c3e:	8c e7       	ldi	r24, 0x7C	; 124
     c40:	90 e0       	ldi	r25, 0x00	; 0
     c42:	0e 94 fc 05 	call	0xbf8	; 0xbf8 <uartTransmitString_F>
	uartNewLine();
     c46:	0e 94 0d 06 	call	0xc1a	; 0xc1a <uartNewLine>
     c4a:	08 95       	ret

00000c4c <__tablejump2__>:
     c4c:	ee 0f       	add	r30, r30
     c4e:	ff 1f       	adc	r31, r31
     c50:	05 90       	lpm	r0, Z+
     c52:	f4 91       	lpm	r31, Z
     c54:	e0 2d       	mov	r30, r0
     c56:	09 94       	ijmp

00000c58 <snprintf>:
     c58:	ae e0       	ldi	r26, 0x0E	; 14
     c5a:	b0 e0       	ldi	r27, 0x00	; 0
     c5c:	e2 e3       	ldi	r30, 0x32	; 50
     c5e:	f6 e0       	ldi	r31, 0x06	; 6
     c60:	0c 94 11 09 	jmp	0x1222	; 0x1222 <__prologue_saves__+0x1c>
     c64:	0d 89       	ldd	r16, Y+21	; 0x15
     c66:	1e 89       	ldd	r17, Y+22	; 0x16
     c68:	8f 89       	ldd	r24, Y+23	; 0x17
     c6a:	98 8d       	ldd	r25, Y+24	; 0x18
     c6c:	26 e0       	ldi	r18, 0x06	; 6
     c6e:	2c 83       	std	Y+4, r18	; 0x04
     c70:	1a 83       	std	Y+2, r17	; 0x02
     c72:	09 83       	std	Y+1, r16	; 0x01
     c74:	97 ff       	sbrs	r25, 7
     c76:	02 c0       	rjmp	.+4      	; 0xc7c <snprintf+0x24>
     c78:	80 e0       	ldi	r24, 0x00	; 0
     c7a:	90 e8       	ldi	r25, 0x80	; 128
     c7c:	01 97       	sbiw	r24, 0x01	; 1
     c7e:	9e 83       	std	Y+6, r25	; 0x06
     c80:	8d 83       	std	Y+5, r24	; 0x05
     c82:	ae 01       	movw	r20, r28
     c84:	45 5e       	subi	r20, 0xE5	; 229
     c86:	5f 4f       	sbci	r21, 0xFF	; 255
     c88:	69 8d       	ldd	r22, Y+25	; 0x19
     c8a:	7a 8d       	ldd	r23, Y+26	; 0x1a
     c8c:	ce 01       	movw	r24, r28
     c8e:	01 96       	adiw	r24, 0x01	; 1
     c90:	0e 94 5c 06 	call	0xcb8	; 0xcb8 <vfprintf>
     c94:	4d 81       	ldd	r20, Y+5	; 0x05
     c96:	5e 81       	ldd	r21, Y+6	; 0x06
     c98:	57 fd       	sbrc	r21, 7
     c9a:	0a c0       	rjmp	.+20     	; 0xcb0 <snprintf+0x58>
     c9c:	2f 81       	ldd	r18, Y+7	; 0x07
     c9e:	38 85       	ldd	r19, Y+8	; 0x08
     ca0:	42 17       	cp	r20, r18
     ca2:	53 07       	cpc	r21, r19
     ca4:	0c f4       	brge	.+2      	; 0xca8 <snprintf+0x50>
     ca6:	9a 01       	movw	r18, r20
     ca8:	f8 01       	movw	r30, r16
     caa:	e2 0f       	add	r30, r18
     cac:	f3 1f       	adc	r31, r19
     cae:	10 82       	st	Z, r1
     cb0:	2e 96       	adiw	r28, 0x0e	; 14
     cb2:	e4 e0       	ldi	r30, 0x04	; 4
     cb4:	0c 94 2d 09 	jmp	0x125a	; 0x125a <__epilogue_restores__+0x1c>

00000cb8 <vfprintf>:
     cb8:	ab e0       	ldi	r26, 0x0B	; 11
     cba:	b0 e0       	ldi	r27, 0x00	; 0
     cbc:	e2 e6       	ldi	r30, 0x62	; 98
     cbe:	f6 e0       	ldi	r31, 0x06	; 6
     cc0:	0c 94 03 09 	jmp	0x1206	; 0x1206 <__prologue_saves__>
     cc4:	6c 01       	movw	r12, r24
     cc6:	7b 01       	movw	r14, r22
     cc8:	8a 01       	movw	r16, r20
     cca:	fc 01       	movw	r30, r24
     ccc:	17 82       	std	Z+7, r1	; 0x07
     cce:	16 82       	std	Z+6, r1	; 0x06
     cd0:	83 81       	ldd	r24, Z+3	; 0x03
     cd2:	81 ff       	sbrs	r24, 1
     cd4:	cc c1       	rjmp	.+920    	; 0x106e <vfprintf+0x3b6>
     cd6:	ce 01       	movw	r24, r28
     cd8:	01 96       	adiw	r24, 0x01	; 1
     cda:	3c 01       	movw	r6, r24
     cdc:	f6 01       	movw	r30, r12
     cde:	93 81       	ldd	r25, Z+3	; 0x03
     ce0:	f7 01       	movw	r30, r14
     ce2:	93 fd       	sbrc	r25, 3
     ce4:	85 91       	lpm	r24, Z+
     ce6:	93 ff       	sbrs	r25, 3
     ce8:	81 91       	ld	r24, Z+
     cea:	7f 01       	movw	r14, r30
     cec:	88 23       	and	r24, r24
     cee:	09 f4       	brne	.+2      	; 0xcf2 <vfprintf+0x3a>
     cf0:	ba c1       	rjmp	.+884    	; 0x1066 <vfprintf+0x3ae>
     cf2:	85 32       	cpi	r24, 0x25	; 37
     cf4:	39 f4       	brne	.+14     	; 0xd04 <vfprintf+0x4c>
     cf6:	93 fd       	sbrc	r25, 3
     cf8:	85 91       	lpm	r24, Z+
     cfa:	93 ff       	sbrs	r25, 3
     cfc:	81 91       	ld	r24, Z+
     cfe:	7f 01       	movw	r14, r30
     d00:	85 32       	cpi	r24, 0x25	; 37
     d02:	29 f4       	brne	.+10     	; 0xd0e <vfprintf+0x56>
     d04:	b6 01       	movw	r22, r12
     d06:	90 e0       	ldi	r25, 0x00	; 0
     d08:	0e 94 53 08 	call	0x10a6	; 0x10a6 <fputc>
     d0c:	e7 cf       	rjmp	.-50     	; 0xcdc <vfprintf+0x24>
     d0e:	91 2c       	mov	r9, r1
     d10:	21 2c       	mov	r2, r1
     d12:	31 2c       	mov	r3, r1
     d14:	ff e1       	ldi	r31, 0x1F	; 31
     d16:	f3 15       	cp	r31, r3
     d18:	d8 f0       	brcs	.+54     	; 0xd50 <vfprintf+0x98>
     d1a:	8b 32       	cpi	r24, 0x2B	; 43
     d1c:	79 f0       	breq	.+30     	; 0xd3c <vfprintf+0x84>
     d1e:	38 f4       	brcc	.+14     	; 0xd2e <vfprintf+0x76>
     d20:	80 32       	cpi	r24, 0x20	; 32
     d22:	79 f0       	breq	.+30     	; 0xd42 <vfprintf+0x8a>
     d24:	83 32       	cpi	r24, 0x23	; 35
     d26:	a1 f4       	brne	.+40     	; 0xd50 <vfprintf+0x98>
     d28:	23 2d       	mov	r18, r3
     d2a:	20 61       	ori	r18, 0x10	; 16
     d2c:	1d c0       	rjmp	.+58     	; 0xd68 <vfprintf+0xb0>
     d2e:	8d 32       	cpi	r24, 0x2D	; 45
     d30:	61 f0       	breq	.+24     	; 0xd4a <vfprintf+0x92>
     d32:	80 33       	cpi	r24, 0x30	; 48
     d34:	69 f4       	brne	.+26     	; 0xd50 <vfprintf+0x98>
     d36:	23 2d       	mov	r18, r3
     d38:	21 60       	ori	r18, 0x01	; 1
     d3a:	16 c0       	rjmp	.+44     	; 0xd68 <vfprintf+0xb0>
     d3c:	83 2d       	mov	r24, r3
     d3e:	82 60       	ori	r24, 0x02	; 2
     d40:	38 2e       	mov	r3, r24
     d42:	e3 2d       	mov	r30, r3
     d44:	e4 60       	ori	r30, 0x04	; 4
     d46:	3e 2e       	mov	r3, r30
     d48:	2a c0       	rjmp	.+84     	; 0xd9e <vfprintf+0xe6>
     d4a:	f3 2d       	mov	r31, r3
     d4c:	f8 60       	ori	r31, 0x08	; 8
     d4e:	1d c0       	rjmp	.+58     	; 0xd8a <vfprintf+0xd2>
     d50:	37 fc       	sbrc	r3, 7
     d52:	2d c0       	rjmp	.+90     	; 0xdae <vfprintf+0xf6>
     d54:	20 ed       	ldi	r18, 0xD0	; 208
     d56:	28 0f       	add	r18, r24
     d58:	2a 30       	cpi	r18, 0x0A	; 10
     d5a:	40 f0       	brcs	.+16     	; 0xd6c <vfprintf+0xb4>
     d5c:	8e 32       	cpi	r24, 0x2E	; 46
     d5e:	b9 f4       	brne	.+46     	; 0xd8e <vfprintf+0xd6>
     d60:	36 fc       	sbrc	r3, 6
     d62:	81 c1       	rjmp	.+770    	; 0x1066 <vfprintf+0x3ae>
     d64:	23 2d       	mov	r18, r3
     d66:	20 64       	ori	r18, 0x40	; 64
     d68:	32 2e       	mov	r3, r18
     d6a:	19 c0       	rjmp	.+50     	; 0xd9e <vfprintf+0xe6>
     d6c:	36 fe       	sbrs	r3, 6
     d6e:	06 c0       	rjmp	.+12     	; 0xd7c <vfprintf+0xc4>
     d70:	8a e0       	ldi	r24, 0x0A	; 10
     d72:	98 9e       	mul	r9, r24
     d74:	20 0d       	add	r18, r0
     d76:	11 24       	eor	r1, r1
     d78:	92 2e       	mov	r9, r18
     d7a:	11 c0       	rjmp	.+34     	; 0xd9e <vfprintf+0xe6>
     d7c:	ea e0       	ldi	r30, 0x0A	; 10
     d7e:	2e 9e       	mul	r2, r30
     d80:	20 0d       	add	r18, r0
     d82:	11 24       	eor	r1, r1
     d84:	22 2e       	mov	r2, r18
     d86:	f3 2d       	mov	r31, r3
     d88:	f0 62       	ori	r31, 0x20	; 32
     d8a:	3f 2e       	mov	r3, r31
     d8c:	08 c0       	rjmp	.+16     	; 0xd9e <vfprintf+0xe6>
     d8e:	8c 36       	cpi	r24, 0x6C	; 108
     d90:	21 f4       	brne	.+8      	; 0xd9a <vfprintf+0xe2>
     d92:	83 2d       	mov	r24, r3
     d94:	80 68       	ori	r24, 0x80	; 128
     d96:	38 2e       	mov	r3, r24
     d98:	02 c0       	rjmp	.+4      	; 0xd9e <vfprintf+0xe6>
     d9a:	88 36       	cpi	r24, 0x68	; 104
     d9c:	41 f4       	brne	.+16     	; 0xdae <vfprintf+0xf6>
     d9e:	f7 01       	movw	r30, r14
     da0:	93 fd       	sbrc	r25, 3
     da2:	85 91       	lpm	r24, Z+
     da4:	93 ff       	sbrs	r25, 3
     da6:	81 91       	ld	r24, Z+
     da8:	7f 01       	movw	r14, r30
     daa:	81 11       	cpse	r24, r1
     dac:	b3 cf       	rjmp	.-154    	; 0xd14 <vfprintf+0x5c>
     dae:	98 2f       	mov	r25, r24
     db0:	9f 7d       	andi	r25, 0xDF	; 223
     db2:	95 54       	subi	r25, 0x45	; 69
     db4:	93 30       	cpi	r25, 0x03	; 3
     db6:	28 f4       	brcc	.+10     	; 0xdc2 <vfprintf+0x10a>
     db8:	0c 5f       	subi	r16, 0xFC	; 252
     dba:	1f 4f       	sbci	r17, 0xFF	; 255
     dbc:	9f e3       	ldi	r25, 0x3F	; 63
     dbe:	99 83       	std	Y+1, r25	; 0x01
     dc0:	0d c0       	rjmp	.+26     	; 0xddc <vfprintf+0x124>
     dc2:	83 36       	cpi	r24, 0x63	; 99
     dc4:	31 f0       	breq	.+12     	; 0xdd2 <vfprintf+0x11a>
     dc6:	83 37       	cpi	r24, 0x73	; 115
     dc8:	71 f0       	breq	.+28     	; 0xde6 <vfprintf+0x12e>
     dca:	83 35       	cpi	r24, 0x53	; 83
     dcc:	09 f0       	breq	.+2      	; 0xdd0 <vfprintf+0x118>
     dce:	59 c0       	rjmp	.+178    	; 0xe82 <vfprintf+0x1ca>
     dd0:	21 c0       	rjmp	.+66     	; 0xe14 <vfprintf+0x15c>
     dd2:	f8 01       	movw	r30, r16
     dd4:	80 81       	ld	r24, Z
     dd6:	89 83       	std	Y+1, r24	; 0x01
     dd8:	0e 5f       	subi	r16, 0xFE	; 254
     dda:	1f 4f       	sbci	r17, 0xFF	; 255
     ddc:	88 24       	eor	r8, r8
     dde:	83 94       	inc	r8
     de0:	91 2c       	mov	r9, r1
     de2:	53 01       	movw	r10, r6
     de4:	13 c0       	rjmp	.+38     	; 0xe0c <vfprintf+0x154>
     de6:	28 01       	movw	r4, r16
     de8:	f2 e0       	ldi	r31, 0x02	; 2
     dea:	4f 0e       	add	r4, r31
     dec:	51 1c       	adc	r5, r1
     dee:	f8 01       	movw	r30, r16
     df0:	a0 80       	ld	r10, Z
     df2:	b1 80       	ldd	r11, Z+1	; 0x01
     df4:	36 fe       	sbrs	r3, 6
     df6:	03 c0       	rjmp	.+6      	; 0xdfe <vfprintf+0x146>
     df8:	69 2d       	mov	r22, r9
     dfa:	70 e0       	ldi	r23, 0x00	; 0
     dfc:	02 c0       	rjmp	.+4      	; 0xe02 <vfprintf+0x14a>
     dfe:	6f ef       	ldi	r22, 0xFF	; 255
     e00:	7f ef       	ldi	r23, 0xFF	; 255
     e02:	c5 01       	movw	r24, r10
     e04:	0e 94 48 08 	call	0x1090	; 0x1090 <strnlen>
     e08:	4c 01       	movw	r8, r24
     e0a:	82 01       	movw	r16, r4
     e0c:	f3 2d       	mov	r31, r3
     e0e:	ff 77       	andi	r31, 0x7F	; 127
     e10:	3f 2e       	mov	r3, r31
     e12:	16 c0       	rjmp	.+44     	; 0xe40 <vfprintf+0x188>
     e14:	28 01       	movw	r4, r16
     e16:	22 e0       	ldi	r18, 0x02	; 2
     e18:	42 0e       	add	r4, r18
     e1a:	51 1c       	adc	r5, r1
     e1c:	f8 01       	movw	r30, r16
     e1e:	a0 80       	ld	r10, Z
     e20:	b1 80       	ldd	r11, Z+1	; 0x01
     e22:	36 fe       	sbrs	r3, 6
     e24:	03 c0       	rjmp	.+6      	; 0xe2c <vfprintf+0x174>
     e26:	69 2d       	mov	r22, r9
     e28:	70 e0       	ldi	r23, 0x00	; 0
     e2a:	02 c0       	rjmp	.+4      	; 0xe30 <vfprintf+0x178>
     e2c:	6f ef       	ldi	r22, 0xFF	; 255
     e2e:	7f ef       	ldi	r23, 0xFF	; 255
     e30:	c5 01       	movw	r24, r10
     e32:	0e 94 3d 08 	call	0x107a	; 0x107a <strnlen_P>
     e36:	4c 01       	movw	r8, r24
     e38:	f3 2d       	mov	r31, r3
     e3a:	f0 68       	ori	r31, 0x80	; 128
     e3c:	3f 2e       	mov	r3, r31
     e3e:	82 01       	movw	r16, r4
     e40:	33 fc       	sbrc	r3, 3
     e42:	1b c0       	rjmp	.+54     	; 0xe7a <vfprintf+0x1c2>
     e44:	82 2d       	mov	r24, r2
     e46:	90 e0       	ldi	r25, 0x00	; 0
     e48:	88 16       	cp	r8, r24
     e4a:	99 06       	cpc	r9, r25
     e4c:	b0 f4       	brcc	.+44     	; 0xe7a <vfprintf+0x1c2>
     e4e:	b6 01       	movw	r22, r12
     e50:	80 e2       	ldi	r24, 0x20	; 32
     e52:	90 e0       	ldi	r25, 0x00	; 0
     e54:	0e 94 53 08 	call	0x10a6	; 0x10a6 <fputc>
     e58:	2a 94       	dec	r2
     e5a:	f4 cf       	rjmp	.-24     	; 0xe44 <vfprintf+0x18c>
     e5c:	f5 01       	movw	r30, r10
     e5e:	37 fc       	sbrc	r3, 7
     e60:	85 91       	lpm	r24, Z+
     e62:	37 fe       	sbrs	r3, 7
     e64:	81 91       	ld	r24, Z+
     e66:	5f 01       	movw	r10, r30
     e68:	b6 01       	movw	r22, r12
     e6a:	90 e0       	ldi	r25, 0x00	; 0
     e6c:	0e 94 53 08 	call	0x10a6	; 0x10a6 <fputc>
     e70:	21 10       	cpse	r2, r1
     e72:	2a 94       	dec	r2
     e74:	21 e0       	ldi	r18, 0x01	; 1
     e76:	82 1a       	sub	r8, r18
     e78:	91 08       	sbc	r9, r1
     e7a:	81 14       	cp	r8, r1
     e7c:	91 04       	cpc	r9, r1
     e7e:	71 f7       	brne	.-36     	; 0xe5c <vfprintf+0x1a4>
     e80:	e8 c0       	rjmp	.+464    	; 0x1052 <vfprintf+0x39a>
     e82:	84 36       	cpi	r24, 0x64	; 100
     e84:	11 f0       	breq	.+4      	; 0xe8a <vfprintf+0x1d2>
     e86:	89 36       	cpi	r24, 0x69	; 105
     e88:	41 f5       	brne	.+80     	; 0xeda <vfprintf+0x222>
     e8a:	f8 01       	movw	r30, r16
     e8c:	37 fe       	sbrs	r3, 7
     e8e:	07 c0       	rjmp	.+14     	; 0xe9e <vfprintf+0x1e6>
     e90:	60 81       	ld	r22, Z
     e92:	71 81       	ldd	r23, Z+1	; 0x01
     e94:	82 81       	ldd	r24, Z+2	; 0x02
     e96:	93 81       	ldd	r25, Z+3	; 0x03
     e98:	0c 5f       	subi	r16, 0xFC	; 252
     e9a:	1f 4f       	sbci	r17, 0xFF	; 255
     e9c:	08 c0       	rjmp	.+16     	; 0xeae <vfprintf+0x1f6>
     e9e:	60 81       	ld	r22, Z
     ea0:	71 81       	ldd	r23, Z+1	; 0x01
     ea2:	07 2e       	mov	r0, r23
     ea4:	00 0c       	add	r0, r0
     ea6:	88 0b       	sbc	r24, r24
     ea8:	99 0b       	sbc	r25, r25
     eaa:	0e 5f       	subi	r16, 0xFE	; 254
     eac:	1f 4f       	sbci	r17, 0xFF	; 255
     eae:	f3 2d       	mov	r31, r3
     eb0:	ff 76       	andi	r31, 0x6F	; 111
     eb2:	3f 2e       	mov	r3, r31
     eb4:	97 ff       	sbrs	r25, 7
     eb6:	09 c0       	rjmp	.+18     	; 0xeca <vfprintf+0x212>
     eb8:	90 95       	com	r25
     eba:	80 95       	com	r24
     ebc:	70 95       	com	r23
     ebe:	61 95       	neg	r22
     ec0:	7f 4f       	sbci	r23, 0xFF	; 255
     ec2:	8f 4f       	sbci	r24, 0xFF	; 255
     ec4:	9f 4f       	sbci	r25, 0xFF	; 255
     ec6:	f0 68       	ori	r31, 0x80	; 128
     ec8:	3f 2e       	mov	r3, r31
     eca:	2a e0       	ldi	r18, 0x0A	; 10
     ecc:	30 e0       	ldi	r19, 0x00	; 0
     ece:	a3 01       	movw	r20, r6
     ed0:	0e 94 8f 08 	call	0x111e	; 0x111e <__ultoa_invert>
     ed4:	88 2e       	mov	r8, r24
     ed6:	86 18       	sub	r8, r6
     ed8:	45 c0       	rjmp	.+138    	; 0xf64 <vfprintf+0x2ac>
     eda:	85 37       	cpi	r24, 0x75	; 117
     edc:	31 f4       	brne	.+12     	; 0xeea <vfprintf+0x232>
     ede:	23 2d       	mov	r18, r3
     ee0:	2f 7e       	andi	r18, 0xEF	; 239
     ee2:	b2 2e       	mov	r11, r18
     ee4:	2a e0       	ldi	r18, 0x0A	; 10
     ee6:	30 e0       	ldi	r19, 0x00	; 0
     ee8:	25 c0       	rjmp	.+74     	; 0xf34 <vfprintf+0x27c>
     eea:	93 2d       	mov	r25, r3
     eec:	99 7f       	andi	r25, 0xF9	; 249
     eee:	b9 2e       	mov	r11, r25
     ef0:	8f 36       	cpi	r24, 0x6F	; 111
     ef2:	c1 f0       	breq	.+48     	; 0xf24 <vfprintf+0x26c>
     ef4:	18 f4       	brcc	.+6      	; 0xefc <vfprintf+0x244>
     ef6:	88 35       	cpi	r24, 0x58	; 88
     ef8:	79 f0       	breq	.+30     	; 0xf18 <vfprintf+0x260>
     efa:	b5 c0       	rjmp	.+362    	; 0x1066 <vfprintf+0x3ae>
     efc:	80 37       	cpi	r24, 0x70	; 112
     efe:	19 f0       	breq	.+6      	; 0xf06 <vfprintf+0x24e>
     f00:	88 37       	cpi	r24, 0x78	; 120
     f02:	21 f0       	breq	.+8      	; 0xf0c <vfprintf+0x254>
     f04:	b0 c0       	rjmp	.+352    	; 0x1066 <vfprintf+0x3ae>
     f06:	e9 2f       	mov	r30, r25
     f08:	e0 61       	ori	r30, 0x10	; 16
     f0a:	be 2e       	mov	r11, r30
     f0c:	b4 fe       	sbrs	r11, 4
     f0e:	0d c0       	rjmp	.+26     	; 0xf2a <vfprintf+0x272>
     f10:	fb 2d       	mov	r31, r11
     f12:	f4 60       	ori	r31, 0x04	; 4
     f14:	bf 2e       	mov	r11, r31
     f16:	09 c0       	rjmp	.+18     	; 0xf2a <vfprintf+0x272>
     f18:	34 fe       	sbrs	r3, 4
     f1a:	0a c0       	rjmp	.+20     	; 0xf30 <vfprintf+0x278>
     f1c:	29 2f       	mov	r18, r25
     f1e:	26 60       	ori	r18, 0x06	; 6
     f20:	b2 2e       	mov	r11, r18
     f22:	06 c0       	rjmp	.+12     	; 0xf30 <vfprintf+0x278>
     f24:	28 e0       	ldi	r18, 0x08	; 8
     f26:	30 e0       	ldi	r19, 0x00	; 0
     f28:	05 c0       	rjmp	.+10     	; 0xf34 <vfprintf+0x27c>
     f2a:	20 e1       	ldi	r18, 0x10	; 16
     f2c:	30 e0       	ldi	r19, 0x00	; 0
     f2e:	02 c0       	rjmp	.+4      	; 0xf34 <vfprintf+0x27c>
     f30:	20 e1       	ldi	r18, 0x10	; 16
     f32:	32 e0       	ldi	r19, 0x02	; 2
     f34:	f8 01       	movw	r30, r16
     f36:	b7 fe       	sbrs	r11, 7
     f38:	07 c0       	rjmp	.+14     	; 0xf48 <vfprintf+0x290>
     f3a:	60 81       	ld	r22, Z
     f3c:	71 81       	ldd	r23, Z+1	; 0x01
     f3e:	82 81       	ldd	r24, Z+2	; 0x02
     f40:	93 81       	ldd	r25, Z+3	; 0x03
     f42:	0c 5f       	subi	r16, 0xFC	; 252
     f44:	1f 4f       	sbci	r17, 0xFF	; 255
     f46:	06 c0       	rjmp	.+12     	; 0xf54 <vfprintf+0x29c>
     f48:	60 81       	ld	r22, Z
     f4a:	71 81       	ldd	r23, Z+1	; 0x01
     f4c:	80 e0       	ldi	r24, 0x00	; 0
     f4e:	90 e0       	ldi	r25, 0x00	; 0
     f50:	0e 5f       	subi	r16, 0xFE	; 254
     f52:	1f 4f       	sbci	r17, 0xFF	; 255
     f54:	a3 01       	movw	r20, r6
     f56:	0e 94 8f 08 	call	0x111e	; 0x111e <__ultoa_invert>
     f5a:	88 2e       	mov	r8, r24
     f5c:	86 18       	sub	r8, r6
     f5e:	fb 2d       	mov	r31, r11
     f60:	ff 77       	andi	r31, 0x7F	; 127
     f62:	3f 2e       	mov	r3, r31
     f64:	36 fe       	sbrs	r3, 6
     f66:	0d c0       	rjmp	.+26     	; 0xf82 <vfprintf+0x2ca>
     f68:	23 2d       	mov	r18, r3
     f6a:	2e 7f       	andi	r18, 0xFE	; 254
     f6c:	a2 2e       	mov	r10, r18
     f6e:	89 14       	cp	r8, r9
     f70:	58 f4       	brcc	.+22     	; 0xf88 <vfprintf+0x2d0>
     f72:	34 fe       	sbrs	r3, 4
     f74:	0b c0       	rjmp	.+22     	; 0xf8c <vfprintf+0x2d4>
     f76:	32 fc       	sbrc	r3, 2
     f78:	09 c0       	rjmp	.+18     	; 0xf8c <vfprintf+0x2d4>
     f7a:	83 2d       	mov	r24, r3
     f7c:	8e 7e       	andi	r24, 0xEE	; 238
     f7e:	a8 2e       	mov	r10, r24
     f80:	05 c0       	rjmp	.+10     	; 0xf8c <vfprintf+0x2d4>
     f82:	b8 2c       	mov	r11, r8
     f84:	a3 2c       	mov	r10, r3
     f86:	03 c0       	rjmp	.+6      	; 0xf8e <vfprintf+0x2d6>
     f88:	b8 2c       	mov	r11, r8
     f8a:	01 c0       	rjmp	.+2      	; 0xf8e <vfprintf+0x2d6>
     f8c:	b9 2c       	mov	r11, r9
     f8e:	a4 fe       	sbrs	r10, 4
     f90:	0f c0       	rjmp	.+30     	; 0xfb0 <vfprintf+0x2f8>
     f92:	fe 01       	movw	r30, r28
     f94:	e8 0d       	add	r30, r8
     f96:	f1 1d       	adc	r31, r1
     f98:	80 81       	ld	r24, Z
     f9a:	80 33       	cpi	r24, 0x30	; 48
     f9c:	21 f4       	brne	.+8      	; 0xfa6 <vfprintf+0x2ee>
     f9e:	9a 2d       	mov	r25, r10
     fa0:	99 7e       	andi	r25, 0xE9	; 233
     fa2:	a9 2e       	mov	r10, r25
     fa4:	09 c0       	rjmp	.+18     	; 0xfb8 <vfprintf+0x300>
     fa6:	a2 fe       	sbrs	r10, 2
     fa8:	06 c0       	rjmp	.+12     	; 0xfb6 <vfprintf+0x2fe>
     faa:	b3 94       	inc	r11
     fac:	b3 94       	inc	r11
     fae:	04 c0       	rjmp	.+8      	; 0xfb8 <vfprintf+0x300>
     fb0:	8a 2d       	mov	r24, r10
     fb2:	86 78       	andi	r24, 0x86	; 134
     fb4:	09 f0       	breq	.+2      	; 0xfb8 <vfprintf+0x300>
     fb6:	b3 94       	inc	r11
     fb8:	a3 fc       	sbrc	r10, 3
     fba:	11 c0       	rjmp	.+34     	; 0xfde <vfprintf+0x326>
     fbc:	a0 fe       	sbrs	r10, 0
     fbe:	06 c0       	rjmp	.+12     	; 0xfcc <vfprintf+0x314>
     fc0:	b2 14       	cp	r11, r2
     fc2:	88 f4       	brcc	.+34     	; 0xfe6 <vfprintf+0x32e>
     fc4:	28 0c       	add	r2, r8
     fc6:	92 2c       	mov	r9, r2
     fc8:	9b 18       	sub	r9, r11
     fca:	0e c0       	rjmp	.+28     	; 0xfe8 <vfprintf+0x330>
     fcc:	b2 14       	cp	r11, r2
     fce:	60 f4       	brcc	.+24     	; 0xfe8 <vfprintf+0x330>
     fd0:	b6 01       	movw	r22, r12
     fd2:	80 e2       	ldi	r24, 0x20	; 32
     fd4:	90 e0       	ldi	r25, 0x00	; 0
     fd6:	0e 94 53 08 	call	0x10a6	; 0x10a6 <fputc>
     fda:	b3 94       	inc	r11
     fdc:	f7 cf       	rjmp	.-18     	; 0xfcc <vfprintf+0x314>
     fde:	b2 14       	cp	r11, r2
     fe0:	18 f4       	brcc	.+6      	; 0xfe8 <vfprintf+0x330>
     fe2:	2b 18       	sub	r2, r11
     fe4:	02 c0       	rjmp	.+4      	; 0xfea <vfprintf+0x332>
     fe6:	98 2c       	mov	r9, r8
     fe8:	21 2c       	mov	r2, r1
     fea:	a4 fe       	sbrs	r10, 4
     fec:	10 c0       	rjmp	.+32     	; 0x100e <vfprintf+0x356>
     fee:	b6 01       	movw	r22, r12
     ff0:	80 e3       	ldi	r24, 0x30	; 48
     ff2:	90 e0       	ldi	r25, 0x00	; 0
     ff4:	0e 94 53 08 	call	0x10a6	; 0x10a6 <fputc>
     ff8:	a2 fe       	sbrs	r10, 2
     ffa:	17 c0       	rjmp	.+46     	; 0x102a <vfprintf+0x372>
     ffc:	a1 fc       	sbrc	r10, 1
     ffe:	03 c0       	rjmp	.+6      	; 0x1006 <vfprintf+0x34e>
    1000:	88 e7       	ldi	r24, 0x78	; 120
    1002:	90 e0       	ldi	r25, 0x00	; 0
    1004:	02 c0       	rjmp	.+4      	; 0x100a <vfprintf+0x352>
    1006:	88 e5       	ldi	r24, 0x58	; 88
    1008:	90 e0       	ldi	r25, 0x00	; 0
    100a:	b6 01       	movw	r22, r12
    100c:	0c c0       	rjmp	.+24     	; 0x1026 <vfprintf+0x36e>
    100e:	8a 2d       	mov	r24, r10
    1010:	86 78       	andi	r24, 0x86	; 134
    1012:	59 f0       	breq	.+22     	; 0x102a <vfprintf+0x372>
    1014:	a1 fe       	sbrs	r10, 1
    1016:	02 c0       	rjmp	.+4      	; 0x101c <vfprintf+0x364>
    1018:	8b e2       	ldi	r24, 0x2B	; 43
    101a:	01 c0       	rjmp	.+2      	; 0x101e <vfprintf+0x366>
    101c:	80 e2       	ldi	r24, 0x20	; 32
    101e:	a7 fc       	sbrc	r10, 7
    1020:	8d e2       	ldi	r24, 0x2D	; 45
    1022:	b6 01       	movw	r22, r12
    1024:	90 e0       	ldi	r25, 0x00	; 0
    1026:	0e 94 53 08 	call	0x10a6	; 0x10a6 <fputc>
    102a:	89 14       	cp	r8, r9
    102c:	38 f4       	brcc	.+14     	; 0x103c <vfprintf+0x384>
    102e:	b6 01       	movw	r22, r12
    1030:	80 e3       	ldi	r24, 0x30	; 48
    1032:	90 e0       	ldi	r25, 0x00	; 0
    1034:	0e 94 53 08 	call	0x10a6	; 0x10a6 <fputc>
    1038:	9a 94       	dec	r9
    103a:	f7 cf       	rjmp	.-18     	; 0x102a <vfprintf+0x372>
    103c:	8a 94       	dec	r8
    103e:	f3 01       	movw	r30, r6
    1040:	e8 0d       	add	r30, r8
    1042:	f1 1d       	adc	r31, r1
    1044:	80 81       	ld	r24, Z
    1046:	b6 01       	movw	r22, r12
    1048:	90 e0       	ldi	r25, 0x00	; 0
    104a:	0e 94 53 08 	call	0x10a6	; 0x10a6 <fputc>
    104e:	81 10       	cpse	r8, r1
    1050:	f5 cf       	rjmp	.-22     	; 0x103c <vfprintf+0x384>
    1052:	22 20       	and	r2, r2
    1054:	09 f4       	brne	.+2      	; 0x1058 <vfprintf+0x3a0>
    1056:	42 ce       	rjmp	.-892    	; 0xcdc <vfprintf+0x24>
    1058:	b6 01       	movw	r22, r12
    105a:	80 e2       	ldi	r24, 0x20	; 32
    105c:	90 e0       	ldi	r25, 0x00	; 0
    105e:	0e 94 53 08 	call	0x10a6	; 0x10a6 <fputc>
    1062:	2a 94       	dec	r2
    1064:	f6 cf       	rjmp	.-20     	; 0x1052 <vfprintf+0x39a>
    1066:	f6 01       	movw	r30, r12
    1068:	86 81       	ldd	r24, Z+6	; 0x06
    106a:	97 81       	ldd	r25, Z+7	; 0x07
    106c:	02 c0       	rjmp	.+4      	; 0x1072 <vfprintf+0x3ba>
    106e:	8f ef       	ldi	r24, 0xFF	; 255
    1070:	9f ef       	ldi	r25, 0xFF	; 255
    1072:	2b 96       	adiw	r28, 0x0b	; 11
    1074:	e2 e1       	ldi	r30, 0x12	; 18
    1076:	0c 94 1f 09 	jmp	0x123e	; 0x123e <__epilogue_restores__>

0000107a <strnlen_P>:
    107a:	fc 01       	movw	r30, r24
    107c:	05 90       	lpm	r0, Z+
    107e:	61 50       	subi	r22, 0x01	; 1
    1080:	70 40       	sbci	r23, 0x00	; 0
    1082:	01 10       	cpse	r0, r1
    1084:	d8 f7       	brcc	.-10     	; 0x107c <strnlen_P+0x2>
    1086:	80 95       	com	r24
    1088:	90 95       	com	r25
    108a:	8e 0f       	add	r24, r30
    108c:	9f 1f       	adc	r25, r31
    108e:	08 95       	ret

00001090 <strnlen>:
    1090:	fc 01       	movw	r30, r24
    1092:	61 50       	subi	r22, 0x01	; 1
    1094:	70 40       	sbci	r23, 0x00	; 0
    1096:	01 90       	ld	r0, Z+
    1098:	01 10       	cpse	r0, r1
    109a:	d8 f7       	brcc	.-10     	; 0x1092 <strnlen+0x2>
    109c:	80 95       	com	r24
    109e:	90 95       	com	r25
    10a0:	8e 0f       	add	r24, r30
    10a2:	9f 1f       	adc	r25, r31
    10a4:	08 95       	ret

000010a6 <fputc>:
    10a6:	0f 93       	push	r16
    10a8:	1f 93       	push	r17
    10aa:	cf 93       	push	r28
    10ac:	df 93       	push	r29
    10ae:	fb 01       	movw	r30, r22
    10b0:	23 81       	ldd	r18, Z+3	; 0x03
    10b2:	21 fd       	sbrc	r18, 1
    10b4:	03 c0       	rjmp	.+6      	; 0x10bc <fputc+0x16>
    10b6:	8f ef       	ldi	r24, 0xFF	; 255
    10b8:	9f ef       	ldi	r25, 0xFF	; 255
    10ba:	2c c0       	rjmp	.+88     	; 0x1114 <fputc+0x6e>
    10bc:	22 ff       	sbrs	r18, 2
    10be:	16 c0       	rjmp	.+44     	; 0x10ec <fputc+0x46>
    10c0:	46 81       	ldd	r20, Z+6	; 0x06
    10c2:	57 81       	ldd	r21, Z+7	; 0x07
    10c4:	24 81       	ldd	r18, Z+4	; 0x04
    10c6:	35 81       	ldd	r19, Z+5	; 0x05
    10c8:	42 17       	cp	r20, r18
    10ca:	53 07       	cpc	r21, r19
    10cc:	44 f4       	brge	.+16     	; 0x10de <fputc+0x38>
    10ce:	a0 81       	ld	r26, Z
    10d0:	b1 81       	ldd	r27, Z+1	; 0x01
    10d2:	9d 01       	movw	r18, r26
    10d4:	2f 5f       	subi	r18, 0xFF	; 255
    10d6:	3f 4f       	sbci	r19, 0xFF	; 255
    10d8:	31 83       	std	Z+1, r19	; 0x01
    10da:	20 83       	st	Z, r18
    10dc:	8c 93       	st	X, r24
    10de:	26 81       	ldd	r18, Z+6	; 0x06
    10e0:	37 81       	ldd	r19, Z+7	; 0x07
    10e2:	2f 5f       	subi	r18, 0xFF	; 255
    10e4:	3f 4f       	sbci	r19, 0xFF	; 255
    10e6:	37 83       	std	Z+7, r19	; 0x07
    10e8:	26 83       	std	Z+6, r18	; 0x06
    10ea:	14 c0       	rjmp	.+40     	; 0x1114 <fputc+0x6e>
    10ec:	8b 01       	movw	r16, r22
    10ee:	ec 01       	movw	r28, r24
    10f0:	fb 01       	movw	r30, r22
    10f2:	00 84       	ldd	r0, Z+8	; 0x08
    10f4:	f1 85       	ldd	r31, Z+9	; 0x09
    10f6:	e0 2d       	mov	r30, r0
    10f8:	09 95       	icall
    10fa:	89 2b       	or	r24, r25
    10fc:	e1 f6       	brne	.-72     	; 0x10b6 <fputc+0x10>
    10fe:	d8 01       	movw	r26, r16
    1100:	16 96       	adiw	r26, 0x06	; 6
    1102:	8d 91       	ld	r24, X+
    1104:	9c 91       	ld	r25, X
    1106:	17 97       	sbiw	r26, 0x07	; 7
    1108:	01 96       	adiw	r24, 0x01	; 1
    110a:	17 96       	adiw	r26, 0x07	; 7
    110c:	9c 93       	st	X, r25
    110e:	8e 93       	st	-X, r24
    1110:	16 97       	sbiw	r26, 0x06	; 6
    1112:	ce 01       	movw	r24, r28
    1114:	df 91       	pop	r29
    1116:	cf 91       	pop	r28
    1118:	1f 91       	pop	r17
    111a:	0f 91       	pop	r16
    111c:	08 95       	ret

0000111e <__ultoa_invert>:
    111e:	fa 01       	movw	r30, r20
    1120:	aa 27       	eor	r26, r26
    1122:	28 30       	cpi	r18, 0x08	; 8
    1124:	51 f1       	breq	.+84     	; 0x117a <__ultoa_invert+0x5c>
    1126:	20 31       	cpi	r18, 0x10	; 16
    1128:	81 f1       	breq	.+96     	; 0x118a <__ultoa_invert+0x6c>
    112a:	e8 94       	clt
    112c:	6f 93       	push	r22
    112e:	6e 7f       	andi	r22, 0xFE	; 254
    1130:	6e 5f       	subi	r22, 0xFE	; 254
    1132:	7f 4f       	sbci	r23, 0xFF	; 255
    1134:	8f 4f       	sbci	r24, 0xFF	; 255
    1136:	9f 4f       	sbci	r25, 0xFF	; 255
    1138:	af 4f       	sbci	r26, 0xFF	; 255
    113a:	b1 e0       	ldi	r27, 0x01	; 1
    113c:	3e d0       	rcall	.+124    	; 0x11ba <__ultoa_invert+0x9c>
    113e:	b4 e0       	ldi	r27, 0x04	; 4
    1140:	3c d0       	rcall	.+120    	; 0x11ba <__ultoa_invert+0x9c>
    1142:	67 0f       	add	r22, r23
    1144:	78 1f       	adc	r23, r24
    1146:	89 1f       	adc	r24, r25
    1148:	9a 1f       	adc	r25, r26
    114a:	a1 1d       	adc	r26, r1
    114c:	68 0f       	add	r22, r24
    114e:	79 1f       	adc	r23, r25
    1150:	8a 1f       	adc	r24, r26
    1152:	91 1d       	adc	r25, r1
    1154:	a1 1d       	adc	r26, r1
    1156:	6a 0f       	add	r22, r26
    1158:	71 1d       	adc	r23, r1
    115a:	81 1d       	adc	r24, r1
    115c:	91 1d       	adc	r25, r1
    115e:	a1 1d       	adc	r26, r1
    1160:	20 d0       	rcall	.+64     	; 0x11a2 <__ultoa_invert+0x84>
    1162:	09 f4       	brne	.+2      	; 0x1166 <__ultoa_invert+0x48>
    1164:	68 94       	set
    1166:	3f 91       	pop	r19
    1168:	2a e0       	ldi	r18, 0x0A	; 10
    116a:	26 9f       	mul	r18, r22
    116c:	11 24       	eor	r1, r1
    116e:	30 19       	sub	r19, r0
    1170:	30 5d       	subi	r19, 0xD0	; 208
    1172:	31 93       	st	Z+, r19
    1174:	de f6       	brtc	.-74     	; 0x112c <__ultoa_invert+0xe>
    1176:	cf 01       	movw	r24, r30
    1178:	08 95       	ret
    117a:	46 2f       	mov	r20, r22
    117c:	47 70       	andi	r20, 0x07	; 7
    117e:	40 5d       	subi	r20, 0xD0	; 208
    1180:	41 93       	st	Z+, r20
    1182:	b3 e0       	ldi	r27, 0x03	; 3
    1184:	0f d0       	rcall	.+30     	; 0x11a4 <__ultoa_invert+0x86>
    1186:	c9 f7       	brne	.-14     	; 0x117a <__ultoa_invert+0x5c>
    1188:	f6 cf       	rjmp	.-20     	; 0x1176 <__ultoa_invert+0x58>
    118a:	46 2f       	mov	r20, r22
    118c:	4f 70       	andi	r20, 0x0F	; 15
    118e:	40 5d       	subi	r20, 0xD0	; 208
    1190:	4a 33       	cpi	r20, 0x3A	; 58
    1192:	18 f0       	brcs	.+6      	; 0x119a <__ultoa_invert+0x7c>
    1194:	49 5d       	subi	r20, 0xD9	; 217
    1196:	31 fd       	sbrc	r19, 1
    1198:	40 52       	subi	r20, 0x20	; 32
    119a:	41 93       	st	Z+, r20
    119c:	02 d0       	rcall	.+4      	; 0x11a2 <__ultoa_invert+0x84>
    119e:	a9 f7       	brne	.-22     	; 0x118a <__ultoa_invert+0x6c>
    11a0:	ea cf       	rjmp	.-44     	; 0x1176 <__ultoa_invert+0x58>
    11a2:	b4 e0       	ldi	r27, 0x04	; 4
    11a4:	a6 95       	lsr	r26
    11a6:	97 95       	ror	r25
    11a8:	87 95       	ror	r24
    11aa:	77 95       	ror	r23
    11ac:	67 95       	ror	r22
    11ae:	ba 95       	dec	r27
    11b0:	c9 f7       	brne	.-14     	; 0x11a4 <__ultoa_invert+0x86>
    11b2:	00 97       	sbiw	r24, 0x00	; 0
    11b4:	61 05       	cpc	r22, r1
    11b6:	71 05       	cpc	r23, r1
    11b8:	08 95       	ret
    11ba:	9b 01       	movw	r18, r22
    11bc:	ac 01       	movw	r20, r24
    11be:	0a 2e       	mov	r0, r26
    11c0:	06 94       	lsr	r0
    11c2:	57 95       	ror	r21
    11c4:	47 95       	ror	r20
    11c6:	37 95       	ror	r19
    11c8:	27 95       	ror	r18
    11ca:	ba 95       	dec	r27
    11cc:	c9 f7       	brne	.-14     	; 0x11c0 <__ultoa_invert+0xa2>
    11ce:	62 0f       	add	r22, r18
    11d0:	73 1f       	adc	r23, r19
    11d2:	84 1f       	adc	r24, r20
    11d4:	95 1f       	adc	r25, r21
    11d6:	a0 1d       	adc	r26, r0
    11d8:	08 95       	ret

000011da <eeprom_read_word>:
    11da:	a8 e1       	ldi	r26, 0x18	; 24
    11dc:	b0 e0       	ldi	r27, 0x00	; 0
    11de:	42 e0       	ldi	r20, 0x02	; 2
    11e0:	50 e0       	ldi	r21, 0x00	; 0
    11e2:	0c 94 f5 08 	jmp	0x11ea	; 0x11ea <eeprom_read_blraw>

000011e6 <eeprom_read_block>:
    11e6:	dc 01       	movw	r26, r24
    11e8:	cb 01       	movw	r24, r22

000011ea <eeprom_read_blraw>:
    11ea:	fc 01       	movw	r30, r24
    11ec:	f9 99       	sbic	0x1f, 1	; 31
    11ee:	fe cf       	rjmp	.-4      	; 0x11ec <eeprom_read_blraw+0x2>
    11f0:	06 c0       	rjmp	.+12     	; 0x11fe <eeprom_read_blraw+0x14>
    11f2:	f2 bd       	out	0x22, r31	; 34
    11f4:	e1 bd       	out	0x21, r30	; 33
    11f6:	f8 9a       	sbi	0x1f, 0	; 31
    11f8:	31 96       	adiw	r30, 0x01	; 1
    11fa:	00 b4       	in	r0, 0x20	; 32
    11fc:	0d 92       	st	X+, r0
    11fe:	41 50       	subi	r20, 0x01	; 1
    1200:	50 40       	sbci	r21, 0x00	; 0
    1202:	b8 f7       	brcc	.-18     	; 0x11f2 <eeprom_read_blraw+0x8>
    1204:	08 95       	ret

00001206 <__prologue_saves__>:
    1206:	2f 92       	push	r2
    1208:	3f 92       	push	r3
    120a:	4f 92       	push	r4
    120c:	5f 92       	push	r5
    120e:	6f 92       	push	r6
    1210:	7f 92       	push	r7
    1212:	8f 92       	push	r8
    1214:	9f 92       	push	r9
    1216:	af 92       	push	r10
    1218:	bf 92       	push	r11
    121a:	cf 92       	push	r12
    121c:	df 92       	push	r13
    121e:	ef 92       	push	r14
    1220:	ff 92       	push	r15
    1222:	0f 93       	push	r16
    1224:	1f 93       	push	r17
    1226:	cf 93       	push	r28
    1228:	df 93       	push	r29
    122a:	cd b7       	in	r28, 0x3d	; 61
    122c:	de b7       	in	r29, 0x3e	; 62
    122e:	ca 1b       	sub	r28, r26
    1230:	db 0b       	sbc	r29, r27
    1232:	0f b6       	in	r0, 0x3f	; 63
    1234:	f8 94       	cli
    1236:	de bf       	out	0x3e, r29	; 62
    1238:	0f be       	out	0x3f, r0	; 63
    123a:	cd bf       	out	0x3d, r28	; 61
    123c:	09 94       	ijmp

0000123e <__epilogue_restores__>:
    123e:	2a 88       	ldd	r2, Y+18	; 0x12
    1240:	39 88       	ldd	r3, Y+17	; 0x11
    1242:	48 88       	ldd	r4, Y+16	; 0x10
    1244:	5f 84       	ldd	r5, Y+15	; 0x0f
    1246:	6e 84       	ldd	r6, Y+14	; 0x0e
    1248:	7d 84       	ldd	r7, Y+13	; 0x0d
    124a:	8c 84       	ldd	r8, Y+12	; 0x0c
    124c:	9b 84       	ldd	r9, Y+11	; 0x0b
    124e:	aa 84       	ldd	r10, Y+10	; 0x0a
    1250:	b9 84       	ldd	r11, Y+9	; 0x09
    1252:	c8 84       	ldd	r12, Y+8	; 0x08
    1254:	df 80       	ldd	r13, Y+7	; 0x07
    1256:	ee 80       	ldd	r14, Y+6	; 0x06
    1258:	fd 80       	ldd	r15, Y+5	; 0x05
    125a:	0c 81       	ldd	r16, Y+4	; 0x04
    125c:	1b 81       	ldd	r17, Y+3	; 0x03
    125e:	aa 81       	ldd	r26, Y+2	; 0x02
    1260:	b9 81       	ldd	r27, Y+1	; 0x01
    1262:	ce 0f       	add	r28, r30
    1264:	d1 1d       	adc	r29, r1
    1266:	0f b6       	in	r0, 0x3f	; 63
    1268:	f8 94       	cli
    126a:	de bf       	out	0x3e, r29	; 62
    126c:	0f be       	out	0x3f, r0	; 63
    126e:	cd bf       	out	0x3d, r28	; 61
    1270:	ed 01       	movw	r28, r26
    1272:	08 95       	ret

00001274 <_exit>:
    1274:	f8 94       	cli

00001276 <__stop_program>:
    1276:	ff cf       	rjmp	.-2      	; 0x1276 <__stop_program>
